Archive member included because of file (symbol)

/usr/local/gcc-arm-none-eabi-4_8-2014q2/bin/../lib/gcc/arm-none-eabi/4.8.4/armv6-m/libgcc.a(_udivsi3.o)
                              ./src/adc.o (__aeabi_uidiv)
/usr/local/gcc-arm-none-eabi-4_8-2014q2/bin/../lib/gcc/arm-none-eabi/4.8.4/armv6-m/libgcc.a(_dvmd_tls.o)
                              /usr/local/gcc-arm-none-eabi-4_8-2014q2/bin/../lib/gcc/arm-none-eabi/4.8.4/armv6-m/libgcc.a(_udivsi3.o) (__aeabi_idiv0)
/usr/local/gcc-arm-none-eabi-4_8-2014q2/bin/../lib/gcc/arm-none-eabi/4.8.4/../../../../arm-none-eabi/lib/armv6-m/libg.a(lib_a-exit.o)
                              /usr/local/gcc-arm-none-eabi-4_8-2014q2/bin/../lib/gcc/arm-none-eabi/4.8.4/../../../../arm-none-eabi/lib/armv6-m/crt0.o (exit)
/usr/local/gcc-arm-none-eabi-4_8-2014q2/bin/../lib/gcc/arm-none-eabi/4.8.4/../../../../arm-none-eabi/lib/armv6-m/libg.a(lib_a-impure.o)
                              /usr/local/gcc-arm-none-eabi-4_8-2014q2/bin/../lib/gcc/arm-none-eabi/4.8.4/../../../../arm-none-eabi/lib/armv6-m/libg.a(lib_a-exit.o) (_global_impure_ptr)
/usr/local/gcc-arm-none-eabi-4_8-2014q2/bin/../lib/gcc/arm-none-eabi/4.8.4/../../../../arm-none-eabi/lib/armv6-m/libg.a(lib_a-init.o)
                              /usr/local/gcc-arm-none-eabi-4_8-2014q2/bin/../lib/gcc/arm-none-eabi/4.8.4/../../../../arm-none-eabi/lib/armv6-m/crt0.o (__libc_init_array)
/usr/local/gcc-arm-none-eabi-4_8-2014q2/bin/../lib/gcc/arm-none-eabi/4.8.4/../../../../arm-none-eabi/lib/armv6-m/libg.a(lib_a-memset.o)
                              /usr/local/gcc-arm-none-eabi-4_8-2014q2/bin/../lib/gcc/arm-none-eabi/4.8.4/../../../../arm-none-eabi/lib/armv6-m/crt0.o (memset)
/usr/local/gcc-arm-none-eabi-4_8-2014q2/bin/../lib/gcc/arm-none-eabi/4.8.4/../../../../arm-none-eabi/lib/armv6-m/libg.a(lib_a-sprintf.o)
                              ./src/uart.o (sprintf)
/usr/local/gcc-arm-none-eabi-4_8-2014q2/bin/../lib/gcc/arm-none-eabi/4.8.4/../../../../arm-none-eabi/lib/armv6-m/libg.a(lib_a-svfprintf.o)
                              /usr/local/gcc-arm-none-eabi-4_8-2014q2/bin/../lib/gcc/arm-none-eabi/4.8.4/../../../../arm-none-eabi/lib/armv6-m/libg.a(lib_a-sprintf.o) (_svfprintf_r)
/usr/local/gcc-arm-none-eabi-4_8-2014q2/bin/../lib/gcc/arm-none-eabi/4.8.4/../../../../arm-none-eabi/lib/armv6-m/libg.a(lib_a-__call_atexit.o)
                              /usr/local/gcc-arm-none-eabi-4_8-2014q2/bin/../lib/gcc/arm-none-eabi/4.8.4/../../../../arm-none-eabi/lib/armv6-m/libg.a(lib_a-exit.o) (__call_exitprocs)
/usr/local/gcc-arm-none-eabi-4_8-2014q2/bin/../lib/gcc/arm-none-eabi/4.8.4/../../../../arm-none-eabi/lib/armv6-m/libg.a(lib_a-atexit.o)
                              /usr/local/gcc-arm-none-eabi-4_8-2014q2/bin/../lib/gcc/arm-none-eabi/4.8.4/../../../../arm-none-eabi/lib/armv6-m/libg.a(lib_a-__call_atexit.o) (atexit)
/usr/local/gcc-arm-none-eabi-4_8-2014q2/bin/../lib/gcc/arm-none-eabi/4.8.4/../../../../arm-none-eabi/lib/armv6-m/libg.a(lib_a-dtoa.o)
                              /usr/local/gcc-arm-none-eabi-4_8-2014q2/bin/../lib/gcc/arm-none-eabi/4.8.4/../../../../arm-none-eabi/lib/armv6-m/libg.a(lib_a-svfprintf.o) (_dtoa_r)
/usr/local/gcc-arm-none-eabi-4_8-2014q2/bin/../lib/gcc/arm-none-eabi/4.8.4/../../../../arm-none-eabi/lib/armv6-m/libg.a(lib_a-fini.o)
                              /usr/local/gcc-arm-none-eabi-4_8-2014q2/bin/../lib/gcc/arm-none-eabi/4.8.4/../../../../arm-none-eabi/lib/armv6-m/libg.a(lib_a-__call_atexit.o) (__libc_fini_array)
/usr/local/gcc-arm-none-eabi-4_8-2014q2/bin/../lib/gcc/arm-none-eabi/4.8.4/../../../../arm-none-eabi/lib/armv6-m/libg.a(lib_a-locale.o)
                              /usr/local/gcc-arm-none-eabi-4_8-2014q2/bin/../lib/gcc/arm-none-eabi/4.8.4/../../../../arm-none-eabi/lib/armv6-m/libg.a(lib_a-svfprintf.o) (_localeconv_r)
/usr/local/gcc-arm-none-eabi-4_8-2014q2/bin/../lib/gcc/arm-none-eabi/4.8.4/../../../../arm-none-eabi/lib/armv6-m/libg.a(lib_a-mallocr.o)
                              /usr/local/gcc-arm-none-eabi-4_8-2014q2/bin/../lib/gcc/arm-none-eabi/4.8.4/../../../../arm-none-eabi/lib/armv6-m/libg.a(lib_a-svfprintf.o) (_malloc_r)
/usr/local/gcc-arm-none-eabi-4_8-2014q2/bin/../lib/gcc/arm-none-eabi/4.8.4/../../../../arm-none-eabi/lib/armv6-m/libg.a(lib_a-memchr-stub.o)
                              /usr/local/gcc-arm-none-eabi-4_8-2014q2/bin/../lib/gcc/arm-none-eabi/4.8.4/../../../../arm-none-eabi/lib/armv6-m/libg.a(lib_a-svfprintf.o) (memchr)
/usr/local/gcc-arm-none-eabi-4_8-2014q2/bin/../lib/gcc/arm-none-eabi/4.8.4/../../../../arm-none-eabi/lib/armv6-m/libg.a(lib_a-memcpy-stub.o)
                              /usr/local/gcc-arm-none-eabi-4_8-2014q2/bin/../lib/gcc/arm-none-eabi/4.8.4/../../../../arm-none-eabi/lib/armv6-m/libg.a(lib_a-dtoa.o) (memcpy)
/usr/local/gcc-arm-none-eabi-4_8-2014q2/bin/../lib/gcc/arm-none-eabi/4.8.4/../../../../arm-none-eabi/lib/armv6-m/libg.a(lib_a-mlock.o)
                              /usr/local/gcc-arm-none-eabi-4_8-2014q2/bin/../lib/gcc/arm-none-eabi/4.8.4/../../../../arm-none-eabi/lib/armv6-m/libg.a(lib_a-mallocr.o) (__malloc_lock)
/usr/local/gcc-arm-none-eabi-4_8-2014q2/bin/../lib/gcc/arm-none-eabi/4.8.4/../../../../arm-none-eabi/lib/armv6-m/libg.a(lib_a-mprec.o)
                              /usr/local/gcc-arm-none-eabi-4_8-2014q2/bin/../lib/gcc/arm-none-eabi/4.8.4/../../../../arm-none-eabi/lib/armv6-m/libg.a(lib_a-dtoa.o) (_Balloc)
/usr/local/gcc-arm-none-eabi-4_8-2014q2/bin/../lib/gcc/arm-none-eabi/4.8.4/../../../../arm-none-eabi/lib/armv6-m/libg.a(lib_a-s_fpclassify.o)
                              /usr/local/gcc-arm-none-eabi-4_8-2014q2/bin/../lib/gcc/arm-none-eabi/4.8.4/../../../../arm-none-eabi/lib/armv6-m/libg.a(lib_a-svfprintf.o) (__fpclassifyd)
/usr/local/gcc-arm-none-eabi-4_8-2014q2/bin/../lib/gcc/arm-none-eabi/4.8.4/../../../../arm-none-eabi/lib/armv6-m/libg.a(lib_a-sbrkr.o)
                              /usr/local/gcc-arm-none-eabi-4_8-2014q2/bin/../lib/gcc/arm-none-eabi/4.8.4/../../../../arm-none-eabi/lib/armv6-m/libg.a(lib_a-mallocr.o) (_sbrk_r)
/usr/local/gcc-arm-none-eabi-4_8-2014q2/bin/../lib/gcc/arm-none-eabi/4.8.4/../../../../arm-none-eabi/lib/armv6-m/libg.a(lib_a-strcmp.o)
                              /usr/local/gcc-arm-none-eabi-4_8-2014q2/bin/../lib/gcc/arm-none-eabi/4.8.4/../../../../arm-none-eabi/lib/armv6-m/libg.a(lib_a-locale.o) (strcmp)
/usr/local/gcc-arm-none-eabi-4_8-2014q2/bin/../lib/gcc/arm-none-eabi/4.8.4/../../../../arm-none-eabi/lib/armv6-m/libg.a(lib_a-strlen.o)
                              /usr/local/gcc-arm-none-eabi-4_8-2014q2/bin/../lib/gcc/arm-none-eabi/4.8.4/../../../../arm-none-eabi/lib/armv6-m/libg.a(lib_a-svfprintf.o) (strlen)
/usr/local/gcc-arm-none-eabi-4_8-2014q2/bin/../lib/gcc/arm-none-eabi/4.8.4/../../../../arm-none-eabi/lib/armv6-m/libg.a(lib_a-svfiprintf.o)
                              /usr/local/gcc-arm-none-eabi-4_8-2014q2/bin/../lib/gcc/arm-none-eabi/4.8.4/../../../../arm-none-eabi/lib/armv6-m/libg.a(lib_a-svfprintf.o) (__ssprint_r)
/usr/local/gcc-arm-none-eabi-4_8-2014q2/bin/../lib/gcc/arm-none-eabi/4.8.4/../../../../arm-none-eabi/lib/armv6-m/libg.a(lib_a-__atexit.o)
                              /usr/local/gcc-arm-none-eabi-4_8-2014q2/bin/../lib/gcc/arm-none-eabi/4.8.4/../../../../arm-none-eabi/lib/armv6-m/libg.a(lib_a-atexit.o) (__register_exitproc)
/usr/local/gcc-arm-none-eabi-4_8-2014q2/bin/../lib/gcc/arm-none-eabi/4.8.4/../../../../arm-none-eabi/lib/armv6-m/libg.a(lib_a-callocr.o)
                              /usr/local/gcc-arm-none-eabi-4_8-2014q2/bin/../lib/gcc/arm-none-eabi/4.8.4/../../../../arm-none-eabi/lib/armv6-m/libg.a(lib_a-mprec.o) (_calloc_r)
/usr/local/gcc-arm-none-eabi-4_8-2014q2/bin/../lib/gcc/arm-none-eabi/4.8.4/../../../../arm-none-eabi/lib/armv6-m/libg.a(lib_a-freer.o)
                              /usr/local/gcc-arm-none-eabi-4_8-2014q2/bin/../lib/gcc/arm-none-eabi/4.8.4/../../../../arm-none-eabi/lib/armv6-m/libg.a(lib_a-mallocr.o) (_free_r)
/usr/local/gcc-arm-none-eabi-4_8-2014q2/bin/../lib/gcc/arm-none-eabi/4.8.4/../../../../arm-none-eabi/lib/armv6-m/libg.a(lib_a-memmove.o)
                              /usr/local/gcc-arm-none-eabi-4_8-2014q2/bin/../lib/gcc/arm-none-eabi/4.8.4/../../../../arm-none-eabi/lib/armv6-m/libg.a(lib_a-svfiprintf.o) (memmove)
/usr/local/gcc-arm-none-eabi-4_8-2014q2/bin/../lib/gcc/arm-none-eabi/4.8.4/../../../../arm-none-eabi/lib/armv6-m/libg.a(lib_a-reallocr.o)
                              /usr/local/gcc-arm-none-eabi-4_8-2014q2/bin/../lib/gcc/arm-none-eabi/4.8.4/../../../../arm-none-eabi/lib/armv6-m/libg.a(lib_a-svfiprintf.o) (_realloc_r)
/usr/local/gcc-arm-none-eabi-4_8-2014q2/bin/../lib/gcc/arm-none-eabi/4.8.4/../../../../arm-none-eabi/lib/armv6-m/libg.a(lib_a-reent.o)
                              /usr/local/gcc-arm-none-eabi-4_8-2014q2/bin/../lib/gcc/arm-none-eabi/4.8.4/../../../../arm-none-eabi/lib/armv6-m/libg.a(lib_a-sbrkr.o) (errno)
/usr/local/gcc-arm-none-eabi-4_8-2014q2/bin/../lib/gcc/arm-none-eabi/4.8.4/armv6-m/libgcc.a(_divsi3.o)
                              /usr/local/gcc-arm-none-eabi-4_8-2014q2/bin/../lib/gcc/arm-none-eabi/4.8.4/../../../../arm-none-eabi/lib/armv6-m/libg.a(lib_a-svfprintf.o) (__aeabi_idiv)
/usr/local/gcc-arm-none-eabi-4_8-2014q2/bin/../lib/gcc/arm-none-eabi/4.8.4/armv6-m/libgcc.a(_arm_cmpdf2.o)
                              /usr/local/gcc-arm-none-eabi-4_8-2014q2/bin/../lib/gcc/arm-none-eabi/4.8.4/../../../../arm-none-eabi/lib/armv6-m/libg.a(lib_a-svfprintf.o) (__aeabi_dcmpeq)
/usr/local/gcc-arm-none-eabi-4_8-2014q2/bin/../lib/gcc/arm-none-eabi/4.8.4/armv6-m/libgcc.a(_aeabi_uldivmod.o)
                              /usr/local/gcc-arm-none-eabi-4_8-2014q2/bin/../lib/gcc/arm-none-eabi/4.8.4/../../../../arm-none-eabi/lib/armv6-m/libg.a(lib_a-svfprintf.o) (__aeabi_uldivmod)
/usr/local/gcc-arm-none-eabi-4_8-2014q2/bin/../lib/gcc/arm-none-eabi/4.8.4/armv6-m/libgcc.a(bpabi.o)
                              /usr/local/gcc-arm-none-eabi-4_8-2014q2/bin/../lib/gcc/arm-none-eabi/4.8.4/armv6-m/libgcc.a(_aeabi_uldivmod.o) (__gnu_uldivmod_helper)
/usr/local/gcc-arm-none-eabi-4_8-2014q2/bin/../lib/gcc/arm-none-eabi/4.8.4/armv6-m/libgcc.a(adddf3.o)
                              /usr/local/gcc-arm-none-eabi-4_8-2014q2/bin/../lib/gcc/arm-none-eabi/4.8.4/../../../../arm-none-eabi/lib/armv6-m/libg.a(lib_a-dtoa.o) (__aeabi_dadd)
/usr/local/gcc-arm-none-eabi-4_8-2014q2/bin/../lib/gcc/arm-none-eabi/4.8.4/armv6-m/libgcc.a(divdf3.o)
                              /usr/local/gcc-arm-none-eabi-4_8-2014q2/bin/../lib/gcc/arm-none-eabi/4.8.4/../../../../arm-none-eabi/lib/armv6-m/libg.a(lib_a-dtoa.o) (__aeabi_ddiv)
/usr/local/gcc-arm-none-eabi-4_8-2014q2/bin/../lib/gcc/arm-none-eabi/4.8.4/armv6-m/libgcc.a(eqdf2.o)
                              /usr/local/gcc-arm-none-eabi-4_8-2014q2/bin/../lib/gcc/arm-none-eabi/4.8.4/armv6-m/libgcc.a(_arm_cmpdf2.o) (__eqdf2)
/usr/local/gcc-arm-none-eabi-4_8-2014q2/bin/../lib/gcc/arm-none-eabi/4.8.4/armv6-m/libgcc.a(gedf2.o)
                              /usr/local/gcc-arm-none-eabi-4_8-2014q2/bin/../lib/gcc/arm-none-eabi/4.8.4/armv6-m/libgcc.a(_arm_cmpdf2.o) (__gedf2)
/usr/local/gcc-arm-none-eabi-4_8-2014q2/bin/../lib/gcc/arm-none-eabi/4.8.4/armv6-m/libgcc.a(ledf2.o)
                              /usr/local/gcc-arm-none-eabi-4_8-2014q2/bin/../lib/gcc/arm-none-eabi/4.8.4/armv6-m/libgcc.a(_arm_cmpdf2.o) (__ledf2)
/usr/local/gcc-arm-none-eabi-4_8-2014q2/bin/../lib/gcc/arm-none-eabi/4.8.4/armv6-m/libgcc.a(muldf3.o)
                              /usr/local/gcc-arm-none-eabi-4_8-2014q2/bin/../lib/gcc/arm-none-eabi/4.8.4/../../../../arm-none-eabi/lib/armv6-m/libg.a(lib_a-dtoa.o) (__aeabi_dmul)
/usr/local/gcc-arm-none-eabi-4_8-2014q2/bin/../lib/gcc/arm-none-eabi/4.8.4/armv6-m/libgcc.a(subdf3.o)
                              /usr/local/gcc-arm-none-eabi-4_8-2014q2/bin/../lib/gcc/arm-none-eabi/4.8.4/../../../../arm-none-eabi/lib/armv6-m/libg.a(lib_a-dtoa.o) (__aeabi_dsub)
/usr/local/gcc-arm-none-eabi-4_8-2014q2/bin/../lib/gcc/arm-none-eabi/4.8.4/armv6-m/libgcc.a(fixdfsi.o)
                              /usr/local/gcc-arm-none-eabi-4_8-2014q2/bin/../lib/gcc/arm-none-eabi/4.8.4/../../../../arm-none-eabi/lib/armv6-m/libg.a(lib_a-dtoa.o) (__aeabi_d2iz)
/usr/local/gcc-arm-none-eabi-4_8-2014q2/bin/../lib/gcc/arm-none-eabi/4.8.4/armv6-m/libgcc.a(floatsidf.o)
                              /usr/local/gcc-arm-none-eabi-4_8-2014q2/bin/../lib/gcc/arm-none-eabi/4.8.4/../../../../arm-none-eabi/lib/armv6-m/libg.a(lib_a-dtoa.o) (__aeabi_i2d)
/usr/local/gcc-arm-none-eabi-4_8-2014q2/bin/../lib/gcc/arm-none-eabi/4.8.4/armv6-m/libgcc.a(floatunsidf.o)
                              /usr/local/gcc-arm-none-eabi-4_8-2014q2/bin/../lib/gcc/arm-none-eabi/4.8.4/../../../../arm-none-eabi/lib/armv6-m/libg.a(lib_a-dtoa.o) (__aeabi_ui2d)
/usr/local/gcc-arm-none-eabi-4_8-2014q2/bin/../lib/gcc/arm-none-eabi/4.8.4/armv6-m/libgcc.a(_clzsi2.o)
                              /usr/local/gcc-arm-none-eabi-4_8-2014q2/bin/../lib/gcc/arm-none-eabi/4.8.4/armv6-m/libgcc.a(adddf3.o) (__clzsi2)
/usr/local/gcc-arm-none-eabi-4_8-2014q2/bin/../lib/gcc/arm-none-eabi/4.8.4/armv6-m/libgcc.a(_muldi3.o)
                              /usr/local/gcc-arm-none-eabi-4_8-2014q2/bin/../lib/gcc/arm-none-eabi/4.8.4/armv6-m/libgcc.a(bpabi.o) (__aeabi_lmul)
/usr/local/gcc-arm-none-eabi-4_8-2014q2/bin/../lib/gcc/arm-none-eabi/4.8.4/armv6-m/libgcc.a(_divdi3.o)
                              /usr/local/gcc-arm-none-eabi-4_8-2014q2/bin/../lib/gcc/arm-none-eabi/4.8.4/armv6-m/libgcc.a(bpabi.o) (__divdi3)
/usr/local/gcc-arm-none-eabi-4_8-2014q2/bin/../lib/gcc/arm-none-eabi/4.8.4/armv6-m/libgcc.a(_udivdi3.o)
                              /usr/local/gcc-arm-none-eabi-4_8-2014q2/bin/../lib/gcc/arm-none-eabi/4.8.4/armv6-m/libgcc.a(bpabi.o) (__udivdi3)
/usr/local/gcc-arm-none-eabi-4_8-2014q2/bin/../lib/gcc/arm-none-eabi/4.8.4/../../../../arm-none-eabi/lib/armv6-m/libnosys.a(sbrk.o)
                              /usr/local/gcc-arm-none-eabi-4_8-2014q2/bin/../lib/gcc/arm-none-eabi/4.8.4/../../../../arm-none-eabi/lib/armv6-m/libg.a(lib_a-sbrkr.o) (_sbrk)
/usr/local/gcc-arm-none-eabi-4_8-2014q2/bin/../lib/gcc/arm-none-eabi/4.8.4/../../../../arm-none-eabi/lib/armv6-m/libnosys.a(_exit.o)
                              /usr/local/gcc-arm-none-eabi-4_8-2014q2/bin/../lib/gcc/arm-none-eabi/4.8.4/../../../../arm-none-eabi/lib/armv6-m/libg.a(lib_a-exit.o) (_exit)

Allocating common symbols
Common symbol       size              file

errno               0x4               /usr/local/gcc-arm-none-eabi-4_8-2014q2/bin/../lib/gcc/arm-none-eabi/4.8.4/../../../../arm-none-eabi/lib/armv6-m/libg.a(lib_a-reent.o)
batt_lvl_in_milli_volts
                    0x2               ./src/adc.o

Discarded input sections

 .group         0x00000000        0x8 ./src/adc.o
 .group         0x00000000        0x8 ./src/adc.o
 .group         0x00000000        0x8 ./src/adc.o
 .group         0x00000000        0x8 ./src/adc.o
 .group         0x00000000        0x8 ./src/adc.o
 .group         0x00000000        0x8 ./src/adc.o
 .group         0x00000000        0x8 ./src/adc.o
 .group         0x00000000        0x8 ./src/adc.o
 .group         0x00000000        0x8 ./src/adc.o
 .group         0x00000000        0x8 ./src/adc.o
 .group         0x00000000        0x8 ./src/adc.o
 .group         0x00000000        0x8 ./src/gpio.o
 .group         0x00000000        0x8 ./src/gpio.o
 .group         0x00000000        0x8 ./src/gpio.o
 .group         0x00000000        0x8 ./src/gpio.o
 .group         0x00000000        0x8 ./src/gpio.o
 .group         0x00000000        0x8 ./src/gpio.o
 .group         0x00000000        0x8 ./src/gpio.o
 .group         0x00000000        0x8 ./src/gpio.o
 .group         0x00000000        0x8 ./src/gpio.o
 .group         0x00000000        0x8 ./src/gpio.o
 .group         0x00000000        0x8 ./src/gpio.o
 .group         0x00000000        0x8 ./src/gpio.o
 .group         0x00000000        0x8 ./src/gpio.o
 .debug_macro   0x00000000      0x826 ./src/gpio.o
 .debug_macro   0x00000000       0x22 ./src/gpio.o
 .debug_macro   0x00000000       0x3a ./src/gpio.o
 .debug_macro   0x00000000       0x16 ./src/gpio.o
 .debug_macro   0x00000000       0x44 ./src/gpio.o
 .debug_macro   0x00000000      0x209 ./src/gpio.o
 .debug_macro   0x00000000       0x1f ./src/gpio.o
 .debug_macro   0x00000000      0x242 ./src/gpio.o
 .debug_macro   0x00000000      0x1d2 ./src/gpio.o
 .debug_macro   0x00000000     0x746b ./src/gpio.o
 .debug_macro   0x00000000       0x3a ./src/gpio.o
 .group         0x00000000        0x8 ./src/main.o
 .group         0x00000000        0x8 ./src/main.o
 .group         0x00000000        0x8 ./src/main.o
 .group         0x00000000        0x8 ./src/main.o
 .group         0x00000000        0x8 ./src/main.o
 .debug_macro   0x00000000      0x826 ./src/main.o
 .debug_macro   0x00000000       0x16 ./src/main.o
 .debug_macro   0x00000000       0x44 ./src/main.o
 .debug_macro   0x00000000      0x209 ./src/main.o
 .group         0x00000000        0x8 ./src/system_nrf51.o
 .group         0x00000000        0x8 ./src/system_nrf51.o
 .group         0x00000000        0x8 ./src/system_nrf51.o
 .group         0x00000000        0x8 ./src/system_nrf51.o
 .group         0x00000000        0x8 ./src/system_nrf51.o
 .group         0x00000000        0x8 ./src/system_nrf51.o
 .group         0x00000000        0x8 ./src/system_nrf51.o
 .group         0x00000000        0x8 ./src/system_nrf51.o
 .group         0x00000000        0x8 ./src/system_nrf51.o
 .group         0x00000000        0x8 ./src/system_nrf51.o
 .group         0x00000000        0x8 ./src/system_nrf51.o
 .group         0x00000000        0x8 ./src/system_nrf51.o
 .group         0x00000000        0x8 ./src/system_nrf51.o
 .debug_macro   0x00000000      0x826 ./src/system_nrf51.o
 .debug_macro   0x00000000       0x16 ./src/system_nrf51.o
 .debug_macro   0x00000000       0x44 ./src/system_nrf51.o
 .debug_macro   0x00000000      0x209 ./src/system_nrf51.o
 .debug_macro   0x00000000       0x22 ./src/system_nrf51.o
 .debug_macro   0x00000000       0x22 ./src/system_nrf51.o
 .debug_macro   0x00000000       0x3a ./src/system_nrf51.o
 .debug_macro   0x00000000       0x1f ./src/system_nrf51.o
 .debug_macro   0x00000000      0x242 ./src/system_nrf51.o
 .debug_macro   0x00000000      0x1d2 ./src/system_nrf51.o
 .debug_macro   0x00000000     0x746b ./src/system_nrf51.o
 .debug_macro   0x00000000      0x976 ./src/system_nrf51.o
 .debug_macro   0x00000000       0x10 ./src/system_nrf51.o
 .group         0x00000000        0x8 ./src/timer.o
 .group         0x00000000        0x8 ./src/timer.o
 .group         0x00000000        0x8 ./src/timer.o
 .group         0x00000000        0x8 ./src/timer.o
 .group         0x00000000        0x8 ./src/timer.o
 .group         0x00000000        0x8 ./src/timer.o
 .group         0x00000000        0x8 ./src/timer.o
 .group         0x00000000        0x8 ./src/timer.o
 .group         0x00000000        0x8 ./src/timer.o
 .group         0x00000000        0x8 ./src/timer.o
 .group         0x00000000        0x8 ./src/timer.o
 .group         0x00000000        0x8 ./src/timer.o
 .debug_macro   0x00000000      0x826 ./src/timer.o
 .debug_macro   0x00000000       0x22 ./src/timer.o
 .debug_macro   0x00000000       0x3a ./src/timer.o
 .debug_macro   0x00000000       0x16 ./src/timer.o
 .debug_macro   0x00000000       0x44 ./src/timer.o
 .debug_macro   0x00000000      0x209 ./src/timer.o
 .debug_macro   0x00000000       0x1f ./src/timer.o
 .debug_macro   0x00000000      0x242 ./src/timer.o
 .debug_macro   0x00000000      0x1d2 ./src/timer.o
 .debug_macro   0x00000000     0x746b ./src/timer.o
 .debug_macro   0x00000000      0x976 ./src/timer.o
 .debug_macro   0x00000000       0x10 ./src/timer.o
 .group         0x00000000        0x8 ./src/uart.o
 .group         0x00000000        0x8 ./src/uart.o
 .group         0x00000000        0x8 ./src/uart.o
 .group         0x00000000        0x8 ./src/uart.o
 .group         0x00000000        0x8 ./src/uart.o
 .group         0x00000000        0x8 ./src/uart.o
 .group         0x00000000        0x8 ./src/uart.o
 .group         0x00000000        0x8 ./src/uart.o
 .group         0x00000000        0x8 ./src/uart.o
 .group         0x00000000        0x8 ./src/uart.o
 .group         0x00000000        0x8 ./src/uart.o
 .group         0x00000000        0x8 ./src/uart.o
 .group         0x00000000        0x8 ./src/uart.o
 .group         0x00000000        0x8 ./src/uart.o
 .group         0x00000000        0x8 ./src/uart.o
 .group         0x00000000        0x8 ./src/uart.o
 .group         0x00000000        0x8 ./src/uart.o
 .group         0x00000000        0x8 ./src/uart.o
 .group         0x00000000        0x8 ./src/uart.o
 .group         0x00000000        0x8 ./src/uart.o
 .group         0x00000000        0x8 ./src/uart.o
 .group         0x00000000        0x8 ./src/uart.o
 .debug_macro   0x00000000      0x826 ./src/uart.o
 .debug_macro   0x00000000       0x16 ./src/uart.o
 .debug_macro   0x00000000       0x3a ./src/uart.o
 .debug_macro   0x00000000       0x22 ./src/uart.o
 .group         0x00000000        0x8 ./simple_uart/simple_uart.o
 .group         0x00000000        0x8 ./simple_uart/simple_uart.o
 .group         0x00000000        0x8 ./simple_uart/simple_uart.o
 .group         0x00000000        0x8 ./simple_uart/simple_uart.o
 .group         0x00000000        0x8 ./simple_uart/simple_uart.o
 .group         0x00000000        0x8 ./simple_uart/simple_uart.o
 .group         0x00000000        0x8 ./simple_uart/simple_uart.o
 .group         0x00000000        0x8 ./simple_uart/simple_uart.o
 .group         0x00000000        0x8 ./simple_uart/simple_uart.o
 .group         0x00000000        0x8 ./simple_uart/simple_uart.o
 .group         0x00000000        0x8 ./simple_uart/simple_uart.o
 .group         0x00000000        0x8 ./simple_uart/simple_uart.o
 .group         0x00000000        0x8 ./simple_uart/simple_uart.o
 .debug_macro   0x00000000      0x826 ./simple_uart/simple_uart.o
 .debug_macro   0x00000000       0x16 ./simple_uart/simple_uart.o
 .debug_macro   0x00000000       0x44 ./simple_uart/simple_uart.o
 .debug_macro   0x00000000      0x209 ./simple_uart/simple_uart.o
 .debug_macro   0x00000000       0x22 ./simple_uart/simple_uart.o
 .debug_macro   0x00000000       0x3a ./simple_uart/simple_uart.o
 .debug_macro   0x00000000       0x1f ./simple_uart/simple_uart.o
 .debug_macro   0x00000000      0x242 ./simple_uart/simple_uart.o
 .debug_macro   0x00000000      0x1d2 ./simple_uart/simple_uart.o
 .debug_macro   0x00000000     0x746b ./simple_uart/simple_uart.o
 .debug_macro   0x00000000      0x976 ./simple_uart/simple_uart.o
 .debug_macro   0x00000000       0x10 ./simple_uart/simple_uart.o
 .debug_macro   0x00000000       0x22 ./simple_uart/simple_uart.o

Memory Configuration

Name             Origin             Length             Attributes
FLASH            0x00000000         0x00040000         xr
RAM              0x20000000         0x00004000         xrw
*default*        0x00000000         0xffffffff

Linker script and memory map

LOAD /usr/local/gcc-arm-none-eabi-4_8-2014q2/bin/../lib/gcc/arm-none-eabi/4.8.4/armv6-m/crti.o
LOAD /usr/local/gcc-arm-none-eabi-4_8-2014q2/bin/../lib/gcc/arm-none-eabi/4.8.4/armv6-m/crtbegin.o
LOAD /usr/local/gcc-arm-none-eabi-4_8-2014q2/bin/../lib/gcc/arm-none-eabi/4.8.4/../../../../arm-none-eabi/lib/armv6-m/crt0.o
LOAD ./src/adc.o
LOAD ./src/gcc_startup_nrf51.o
LOAD ./src/gpio.o
LOAD ./src/main.o
LOAD ./src/system_nrf51.o
LOAD ./src/timer.o
LOAD ./src/uart.o
LOAD ./simple_uart/simple_uart.o
START GROUP
LOAD /usr/local/gcc-arm-none-eabi-4_8-2014q2/bin/../lib/gcc/arm-none-eabi/4.8.4/armv6-m/libgcc.a
LOAD /usr/local/gcc-arm-none-eabi-4_8-2014q2/bin/../lib/gcc/arm-none-eabi/4.8.4/../../../../arm-none-eabi/lib/armv6-m/libg.a
LOAD /usr/local/gcc-arm-none-eabi-4_8-2014q2/bin/../lib/gcc/arm-none-eabi/4.8.4/../../../../arm-none-eabi/lib/armv6-m/libc.a
END GROUP
LOAD /usr/local/gcc-arm-none-eabi-4_8-2014q2/bin/../lib/gcc/arm-none-eabi/4.8.4/armv6-m/crtend.o
LOAD /usr/local/gcc-arm-none-eabi-4_8-2014q2/bin/../lib/gcc/arm-none-eabi/4.8.4/armv6-m/crtn.o
START GROUP
LOAD /usr/local/gcc-arm-none-eabi-4_8-2014q2/bin/../lib/gcc/arm-none-eabi/4.8.4/armv6-m/libgcc.a
LOAD /usr/local/gcc-arm-none-eabi-4_8-2014q2/bin/../lib/gcc/arm-none-eabi/4.8.4/../../../../arm-none-eabi/lib/armv6-m/libc.a
LOAD /usr/local/gcc-arm-none-eabi-4_8-2014q2/bin/../lib/gcc/arm-none-eabi/4.8.4/../../../../arm-none-eabi/lib/armv6-m/libnosys.a
END GROUP

.text           0x00000000     0x818c
 *(.Vectors)
 .Vectors       0x00000000       0xc0 ./src/gcc_startup_nrf51.o
                0x00000000                __Vectors
 *(.text*)
 .text          0x000000c0        0x0 /usr/local/gcc-arm-none-eabi-4_8-2014q2/bin/../lib/gcc/arm-none-eabi/4.8.4/armv6-m/crti.o
 .text          0x000000c0       0x60 /usr/local/gcc-arm-none-eabi-4_8-2014q2/bin/../lib/gcc/arm-none-eabi/4.8.4/armv6-m/crtbegin.o
 .text          0x00000120       0x78 /usr/local/gcc-arm-none-eabi-4_8-2014q2/bin/../lib/gcc/arm-none-eabi/4.8.4/../../../../arm-none-eabi/lib/armv6-m/crt0.o
                0x00000120                _mainCRTStartup
                0x00000120                _start
 .text          0x00000198      0x100 ./src/adc.o
                0x000001c4                adc_init
                0x00000220                ADC_IRQHandler
 .text          0x00000298       0x48 ./src/gcc_startup_nrf51.o
                0x00000298                Reset_Handler
                0x000002d4                NMI_Handler
                0x000002d6                HardFault_Handler
                0x000002d8                SVC_Handler
                0x000002da                PendSV_Handler
                0x000002dc                SysTick_Handler
                0x000002de                TIMER2_IRQHandler
                0x000002de                SPI0_TWI0_IRQHandler
                0x000002de                RTC0_IRQHandler
                0x000002de                GPIOTE_IRQHandler
                0x000002de                POWER_CLOCK_IRQHandler
                0x000002de                RADIO_IRQHandler
                0x000002de                SWI4_IRQHandler
                0x000002de                TEMP_IRQHandler
                0x000002de                QDEC_IRQHandler
                0x000002de                UART0_IRQHandler
                0x000002de                SWI5_IRQHandler
                0x000002de                TIMER0_IRQHandler
                0x000002de                SWI0_IRQHandler
                0x000002de                TIMER1_IRQHandler
                0x000002de                ECB_IRQHandler
                0x000002de                Default_Handler
                0x000002de                LPCOMP_COMP_IRQHandler
                0x000002de                SWI3_IRQHandler
                0x000002de                CCM_AAR_IRQHandler
                0x000002de                WDT_IRQHandler
                0x000002de                SWI2_IRQHandler
                0x000002de                RNG_IRQHandler
                0x000002de                SPI1_TWI1_IRQHandler
                0x000002de                RTC1_IRQHandler
                0x000002de                SWI1_IRQHandler
 .text          0x000002e0       0xc4 ./src/gpio.o
                0x00000374                gpio_init
                0x00000384                blink_red
 .text          0x000003a4       0x18 ./src/main.o
                0x000003a4                main
 .text          0x000003bc      0x128 ./src/system_nrf51.o
                0x000003bc                SystemCoreClockUpdate
                0x000003d4                SystemInit
 .text          0x000004e4       0x7c ./src/timer.o
                0x000004e4                timer_init
 .text          0x00000560       0x4c ./src/uart.o
                0x00000560                uart_init
                0x0000057c                dump_uint16
 .text          0x000005ac      0x27c ./simple_uart/simple_uart.o
                0x0000062c                simple_uart_get
                0x0000065c                simple_uart_get_with_timeout
                0x000006cc                simple_uart_put
                0x00000708                simple_uart_putstring
                0x00000758                simple_uart_config
 .text          0x00000828       0x9c /usr/local/gcc-arm-none-eabi-4_8-2014q2/bin/../lib/gcc/arm-none-eabi/4.8.4/armv6-m/libgcc.a(_udivsi3.o)
                0x00000828                __udivsi3
                0x00000828                __aeabi_uidiv
                0x000008b0                __aeabi_uidivmod
 .text          0x000008c4        0x4 /usr/local/gcc-arm-none-eabi-4_8-2014q2/bin/../lib/gcc/arm-none-eabi/4.8.4/armv6-m/libgcc.a(_dvmd_tls.o)
                0x000008c4                __aeabi_ldiv0
                0x000008c4                __aeabi_idiv0
 .text          0x000008c8        0x0 /usr/local/gcc-arm-none-eabi-4_8-2014q2/bin/../lib/gcc/arm-none-eabi/4.8.4/../../../../arm-none-eabi/lib/armv6-m/libg.a(lib_a-exit.o)
 .text.exit     0x000008c8       0x20 /usr/local/gcc-arm-none-eabi-4_8-2014q2/bin/../lib/gcc/arm-none-eabi/4.8.4/../../../../arm-none-eabi/lib/armv6-m/libg.a(lib_a-exit.o)
                0x000008c8                exit
 .text          0x000008e8        0x0 /usr/local/gcc-arm-none-eabi-4_8-2014q2/bin/../lib/gcc/arm-none-eabi/4.8.4/../../../../arm-none-eabi/lib/armv6-m/libg.a(lib_a-impure.o)
 .text          0x000008e8        0x0 /usr/local/gcc-arm-none-eabi-4_8-2014q2/bin/../lib/gcc/arm-none-eabi/4.8.4/../../../../arm-none-eabi/lib/armv6-m/libg.a(lib_a-init.o)
 .text.__libc_init_array
                0x000008e8       0x48 /usr/local/gcc-arm-none-eabi-4_8-2014q2/bin/../lib/gcc/arm-none-eabi/4.8.4/../../../../arm-none-eabi/lib/armv6-m/libg.a(lib_a-init.o)
                0x000008e8                __libc_init_array
 .text          0x00000930        0x0 /usr/local/gcc-arm-none-eabi-4_8-2014q2/bin/../lib/gcc/arm-none-eabi/4.8.4/../../../../arm-none-eabi/lib/armv6-m/libg.a(lib_a-memset.o)
 .text.memset   0x00000930       0x9c /usr/local/gcc-arm-none-eabi-4_8-2014q2/bin/../lib/gcc/arm-none-eabi/4.8.4/../../../../arm-none-eabi/lib/armv6-m/libg.a(lib_a-memset.o)
                0x00000930                memset
 .text          0x000009cc        0x0 /usr/local/gcc-arm-none-eabi-4_8-2014q2/bin/../lib/gcc/arm-none-eabi/4.8.4/../../../../arm-none-eabi/lib/armv6-m/libg.a(lib_a-sprintf.o)
 .text._sprintf_r
                0x000009cc       0x40 /usr/local/gcc-arm-none-eabi-4_8-2014q2/bin/../lib/gcc/arm-none-eabi/4.8.4/../../../../arm-none-eabi/lib/armv6-m/libg.a(lib_a-sprintf.o)
                0x000009cc                _sprintf_r
 .text.sprintf  0x00000a0c       0x44 /usr/local/gcc-arm-none-eabi-4_8-2014q2/bin/../lib/gcc/arm-none-eabi/4.8.4/../../../../arm-none-eabi/lib/armv6-m/libg.a(lib_a-sprintf.o)
                0x00000a0c                sprintf
 .text          0x00000a50        0x0 /usr/local/gcc-arm-none-eabi-4_8-2014q2/bin/../lib/gcc/arm-none-eabi/4.8.4/../../../../arm-none-eabi/lib/armv6-m/libg.a(lib_a-svfprintf.o)
 .text._svfprintf_r
                0x00000a50     0x15c8 /usr/local/gcc-arm-none-eabi-4_8-2014q2/bin/../lib/gcc/arm-none-eabi/4.8.4/../../../../arm-none-eabi/lib/armv6-m/libg.a(lib_a-svfprintf.o)
                0x00000a50                _svfprintf_r
 .text          0x00002018        0x0 /usr/local/gcc-arm-none-eabi-4_8-2014q2/bin/../lib/gcc/arm-none-eabi/4.8.4/../../../../arm-none-eabi/lib/armv6-m/libg.a(lib_a-__call_atexit.o)
 .text.startup.register_fini
                0x00002018       0x18 /usr/local/gcc-arm-none-eabi-4_8-2014q2/bin/../lib/gcc/arm-none-eabi/4.8.4/../../../../arm-none-eabi/lib/armv6-m/libg.a(lib_a-__call_atexit.o)
 .text.__call_exitprocs
                0x00002030      0x118 /usr/local/gcc-arm-none-eabi-4_8-2014q2/bin/../lib/gcc/arm-none-eabi/4.8.4/../../../../arm-none-eabi/lib/armv6-m/libg.a(lib_a-__call_atexit.o)
                0x00002030                __call_exitprocs
 .text          0x00002148        0x0 /usr/local/gcc-arm-none-eabi-4_8-2014q2/bin/../lib/gcc/arm-none-eabi/4.8.4/../../../../arm-none-eabi/lib/armv6-m/libg.a(lib_a-atexit.o)
 .text.atexit   0x00002148       0x10 /usr/local/gcc-arm-none-eabi-4_8-2014q2/bin/../lib/gcc/arm-none-eabi/4.8.4/../../../../arm-none-eabi/lib/armv6-m/libg.a(lib_a-atexit.o)
                0x00002148                atexit
 .text          0x00002158        0x0 /usr/local/gcc-arm-none-eabi-4_8-2014q2/bin/../lib/gcc/arm-none-eabi/4.8.4/../../../../arm-none-eabi/lib/armv6-m/libg.a(lib_a-dtoa.o)
 .text.quorem   0x00002158      0x150 /usr/local/gcc-arm-none-eabi-4_8-2014q2/bin/../lib/gcc/arm-none-eabi/4.8.4/../../../../arm-none-eabi/lib/armv6-m/libg.a(lib_a-dtoa.o)
 .text._dtoa_r  0x000022a8      0xf38 /usr/local/gcc-arm-none-eabi-4_8-2014q2/bin/../lib/gcc/arm-none-eabi/4.8.4/../../../../arm-none-eabi/lib/armv6-m/libg.a(lib_a-dtoa.o)
                0x000022a8                _dtoa_r
 .text          0x000031e0        0x0 /usr/local/gcc-arm-none-eabi-4_8-2014q2/bin/../lib/gcc/arm-none-eabi/4.8.4/../../../../arm-none-eabi/lib/armv6-m/libg.a(lib_a-fini.o)
 .text.__libc_fini_array
                0x000031e0       0x30 /usr/local/gcc-arm-none-eabi-4_8-2014q2/bin/../lib/gcc/arm-none-eabi/4.8.4/../../../../arm-none-eabi/lib/armv6-m/libg.a(lib_a-fini.o)
                0x000031e0                __libc_fini_array
 .text          0x00003210        0x0 /usr/local/gcc-arm-none-eabi-4_8-2014q2/bin/../lib/gcc/arm-none-eabi/4.8.4/../../../../arm-none-eabi/lib/armv6-m/libg.a(lib_a-locale.o)
 .text._setlocale_r
                0x00003210       0x44 /usr/local/gcc-arm-none-eabi-4_8-2014q2/bin/../lib/gcc/arm-none-eabi/4.8.4/../../../../arm-none-eabi/lib/armv6-m/libg.a(lib_a-locale.o)
                0x00003210                _setlocale_r
 .text.__locale_charset
                0x00003254        0x8 /usr/local/gcc-arm-none-eabi-4_8-2014q2/bin/../lib/gcc/arm-none-eabi/4.8.4/../../../../arm-none-eabi/lib/armv6-m/libg.a(lib_a-locale.o)
                0x00003254                __locale_charset
 .text.__locale_mb_cur_max
                0x0000325c        0xc /usr/local/gcc-arm-none-eabi-4_8-2014q2/bin/../lib/gcc/arm-none-eabi/4.8.4/../../../../arm-none-eabi/lib/armv6-m/libg.a(lib_a-locale.o)
                0x0000325c                __locale_mb_cur_max
 .text.__locale_msgcharset
                0x00003268        0x8 /usr/local/gcc-arm-none-eabi-4_8-2014q2/bin/../lib/gcc/arm-none-eabi/4.8.4/../../../../arm-none-eabi/lib/armv6-m/libg.a(lib_a-locale.o)
                0x00003268                __locale_msgcharset
 .text.__locale_cjk_lang
                0x00003270        0x4 /usr/local/gcc-arm-none-eabi-4_8-2014q2/bin/../lib/gcc/arm-none-eabi/4.8.4/../../../../arm-none-eabi/lib/armv6-m/libg.a(lib_a-locale.o)
                0x00003270                __locale_cjk_lang
 .text._localeconv_r
                0x00003274        0x8 /usr/local/gcc-arm-none-eabi-4_8-2014q2/bin/../lib/gcc/arm-none-eabi/4.8.4/../../../../arm-none-eabi/lib/armv6-m/libg.a(lib_a-locale.o)
                0x00003274                _localeconv_r
 .text.setlocale
                0x0000327c       0x18 /usr/local/gcc-arm-none-eabi-4_8-2014q2/bin/../lib/gcc/arm-none-eabi/4.8.4/../../../../arm-none-eabi/lib/armv6-m/libg.a(lib_a-locale.o)
                0x0000327c                setlocale
 .text.localeconv
                0x00003294        0x8 /usr/local/gcc-arm-none-eabi-4_8-2014q2/bin/../lib/gcc/arm-none-eabi/4.8.4/../../../../arm-none-eabi/lib/armv6-m/libg.a(lib_a-locale.o)
                0x00003294                localeconv
 .text          0x0000329c        0x0 /usr/local/gcc-arm-none-eabi-4_8-2014q2/bin/../lib/gcc/arm-none-eabi/4.8.4/../../../../arm-none-eabi/lib/armv6-m/libg.a(lib_a-mallocr.o)
 .text._malloc_r
                0x0000329c      0x50c /usr/local/gcc-arm-none-eabi-4_8-2014q2/bin/../lib/gcc/arm-none-eabi/4.8.4/../../../../arm-none-eabi/lib/armv6-m/libg.a(lib_a-mallocr.o)
                0x0000329c                _malloc_r
 .text          0x000037a8        0x0 /usr/local/gcc-arm-none-eabi-4_8-2014q2/bin/../lib/gcc/arm-none-eabi/4.8.4/../../../../arm-none-eabi/lib/armv6-m/libg.a(lib_a-memchr-stub.o)
 .text.memchr   0x000037a8       0x84 /usr/local/gcc-arm-none-eabi-4_8-2014q2/bin/../lib/gcc/arm-none-eabi/4.8.4/../../../../arm-none-eabi/lib/armv6-m/libg.a(lib_a-memchr-stub.o)
                0x000037a8                memchr
 .text          0x0000382c        0x0 /usr/local/gcc-arm-none-eabi-4_8-2014q2/bin/../lib/gcc/arm-none-eabi/4.8.4/../../../../arm-none-eabi/lib/armv6-m/libg.a(lib_a-memcpy-stub.o)
 .text.memcpy   0x0000382c       0x84 /usr/local/gcc-arm-none-eabi-4_8-2014q2/bin/../lib/gcc/arm-none-eabi/4.8.4/../../../../arm-none-eabi/lib/armv6-m/libg.a(lib_a-memcpy-stub.o)
                0x0000382c                memcpy
 .text          0x000038b0        0x0 /usr/local/gcc-arm-none-eabi-4_8-2014q2/bin/../lib/gcc/arm-none-eabi/4.8.4/../../../../arm-none-eabi/lib/armv6-m/libg.a(lib_a-mlock.o)
 .text.__malloc_lock
                0x000038b0        0x4 /usr/local/gcc-arm-none-eabi-4_8-2014q2/bin/../lib/gcc/arm-none-eabi/4.8.4/../../../../arm-none-eabi/lib/armv6-m/libg.a(lib_a-mlock.o)
                0x000038b0                __malloc_lock
 .text.__malloc_unlock
                0x000038b4        0x4 /usr/local/gcc-arm-none-eabi-4_8-2014q2/bin/../lib/gcc/arm-none-eabi/4.8.4/../../../../arm-none-eabi/lib/armv6-m/libg.a(lib_a-mlock.o)
                0x000038b4                __malloc_unlock
 .text          0x000038b8        0x0 /usr/local/gcc-arm-none-eabi-4_8-2014q2/bin/../lib/gcc/arm-none-eabi/4.8.4/../../../../arm-none-eabi/lib/armv6-m/libg.a(lib_a-mprec.o)
 .text._Balloc  0x000038b8       0x50 /usr/local/gcc-arm-none-eabi-4_8-2014q2/bin/../lib/gcc/arm-none-eabi/4.8.4/../../../../arm-none-eabi/lib/armv6-m/libg.a(lib_a-mprec.o)
                0x000038b8                _Balloc
 .text._Bfree   0x00003908       0x14 /usr/local/gcc-arm-none-eabi-4_8-2014q2/bin/../lib/gcc/arm-none-eabi/4.8.4/../../../../arm-none-eabi/lib/armv6-m/libg.a(lib_a-mprec.o)
                0x00003908                _Bfree
 .text.__multadd
                0x0000391c       0xa8 /usr/local/gcc-arm-none-eabi-4_8-2014q2/bin/../lib/gcc/arm-none-eabi/4.8.4/../../../../arm-none-eabi/lib/armv6-m/libg.a(lib_a-mprec.o)
                0x0000391c                __multadd
 .text.__s2b    0x000039c4       0x98 /usr/local/gcc-arm-none-eabi-4_8-2014q2/bin/../lib/gcc/arm-none-eabi/4.8.4/../../../../arm-none-eabi/lib/armv6-m/libg.a(lib_a-mprec.o)
                0x000039c4                __s2b
 .text.__hi0bits
                0x00003a5c       0x3c /usr/local/gcc-arm-none-eabi-4_8-2014q2/bin/../lib/gcc/arm-none-eabi/4.8.4/../../../../arm-none-eabi/lib/armv6-m/libg.a(lib_a-mprec.o)
                0x00003a5c                __hi0bits
 .text.__lo0bits
                0x00003a98       0x5c /usr/local/gcc-arm-none-eabi-4_8-2014q2/bin/../lib/gcc/arm-none-eabi/4.8.4/../../../../arm-none-eabi/lib/armv6-m/libg.a(lib_a-mprec.o)
                0x00003a98                __lo0bits
 .text.__i2b    0x00003af4       0x14 /usr/local/gcc-arm-none-eabi-4_8-2014q2/bin/../lib/gcc/arm-none-eabi/4.8.4/../../../../arm-none-eabi/lib/armv6-m/libg.a(lib_a-mprec.o)
                0x00003af4                __i2b
 .text.__multiply
                0x00003b08      0x144 /usr/local/gcc-arm-none-eabi-4_8-2014q2/bin/../lib/gcc/arm-none-eabi/4.8.4/../../../../arm-none-eabi/lib/armv6-m/libg.a(lib_a-mprec.o)
                0x00003b08                __multiply
 .text.__pow5mult
                0x00003c4c       0xb8 /usr/local/gcc-arm-none-eabi-4_8-2014q2/bin/../lib/gcc/arm-none-eabi/4.8.4/../../../../arm-none-eabi/lib/armv6-m/libg.a(lib_a-mprec.o)
                0x00003c4c                __pow5mult
 .text.__lshift
                0x00003d04       0xc0 /usr/local/gcc-arm-none-eabi-4_8-2014q2/bin/../lib/gcc/arm-none-eabi/4.8.4/../../../../arm-none-eabi/lib/armv6-m/libg.a(lib_a-mprec.o)
                0x00003d04                __lshift
 .text.__mcmp   0x00003dc4       0x38 /usr/local/gcc-arm-none-eabi-4_8-2014q2/bin/../lib/gcc/arm-none-eabi/4.8.4/../../../../arm-none-eabi/lib/armv6-m/libg.a(lib_a-mprec.o)
                0x00003dc4                __mcmp
 .text.__mdiff  0x00003dfc       0xe8 /usr/local/gcc-arm-none-eabi-4_8-2014q2/bin/../lib/gcc/arm-none-eabi/4.8.4/../../../../arm-none-eabi/lib/armv6-m/libg.a(lib_a-mprec.o)
                0x00003dfc                __mdiff
 .text.__ulp    0x00003ee4       0x44 /usr/local/gcc-arm-none-eabi-4_8-2014q2/bin/../lib/gcc/arm-none-eabi/4.8.4/../../../../arm-none-eabi/lib/armv6-m/libg.a(lib_a-mprec.o)
                0x00003ee4                __ulp
 .text.__b2d    0x00003f28       0xac /usr/local/gcc-arm-none-eabi-4_8-2014q2/bin/../lib/gcc/arm-none-eabi/4.8.4/../../../../arm-none-eabi/lib/armv6-m/libg.a(lib_a-mprec.o)
                0x00003f28                __b2d
 .text.__d2b    0x00003fd4       0xbc /usr/local/gcc-arm-none-eabi-4_8-2014q2/bin/../lib/gcc/arm-none-eabi/4.8.4/../../../../arm-none-eabi/lib/armv6-m/libg.a(lib_a-mprec.o)
                0x00003fd4                __d2b
 .text.__ratio  0x00004090       0x70 /usr/local/gcc-arm-none-eabi-4_8-2014q2/bin/../lib/gcc/arm-none-eabi/4.8.4/../../../../arm-none-eabi/lib/armv6-m/libg.a(lib_a-mprec.o)
                0x00004090                __ratio
 .text._mprec_log10
                0x00004100       0x40 /usr/local/gcc-arm-none-eabi-4_8-2014q2/bin/../lib/gcc/arm-none-eabi/4.8.4/../../../../arm-none-eabi/lib/armv6-m/libg.a(lib_a-mprec.o)
                0x00004100                _mprec_log10
 .text.__copybits
                0x00004140       0x40 /usr/local/gcc-arm-none-eabi-4_8-2014q2/bin/../lib/gcc/arm-none-eabi/4.8.4/../../../../arm-none-eabi/lib/armv6-m/libg.a(lib_a-mprec.o)
                0x00004140                __copybits
 .text.__any_on
                0x00004180       0x60 /usr/local/gcc-arm-none-eabi-4_8-2014q2/bin/../lib/gcc/arm-none-eabi/4.8.4/../../../../arm-none-eabi/lib/armv6-m/libg.a(lib_a-mprec.o)
                0x00004180                __any_on
 .text          0x000041e0        0x0 /usr/local/gcc-arm-none-eabi-4_8-2014q2/bin/../lib/gcc/arm-none-eabi/4.8.4/../../../../arm-none-eabi/lib/armv6-m/libg.a(lib_a-s_fpclassify.o)
 .text.__fpclassifyd
                0x000041e0       0x60 /usr/local/gcc-arm-none-eabi-4_8-2014q2/bin/../lib/gcc/arm-none-eabi/4.8.4/../../../../arm-none-eabi/lib/armv6-m/libg.a(lib_a-s_fpclassify.o)
                0x000041e0                __fpclassifyd
 .text          0x00004240        0x0 /usr/local/gcc-arm-none-eabi-4_8-2014q2/bin/../lib/gcc/arm-none-eabi/4.8.4/../../../../arm-none-eabi/lib/armv6-m/libg.a(lib_a-sbrkr.o)
 .text._sbrk_r  0x00004240       0x24 /usr/local/gcc-arm-none-eabi-4_8-2014q2/bin/../lib/gcc/arm-none-eabi/4.8.4/../../../../arm-none-eabi/lib/armv6-m/libg.a(lib_a-sbrkr.o)
                0x00004240                _sbrk_r
 .text          0x00004264       0x14 /usr/local/gcc-arm-none-eabi-4_8-2014q2/bin/../lib/gcc/arm-none-eabi/4.8.4/../../../../arm-none-eabi/lib/armv6-m/libg.a(lib_a-strcmp.o)
                0x00004264                strcmp
 .text          0x00004278        0x0 /usr/local/gcc-arm-none-eabi-4_8-2014q2/bin/../lib/gcc/arm-none-eabi/4.8.4/../../../../arm-none-eabi/lib/armv6-m/libg.a(lib_a-strlen.o)
 .text.strlen   0x00004278       0x10 /usr/local/gcc-arm-none-eabi-4_8-2014q2/bin/../lib/gcc/arm-none-eabi/4.8.4/../../../../arm-none-eabi/lib/armv6-m/libg.a(lib_a-strlen.o)
                0x00004278                strlen
 .text          0x00004288        0x0 /usr/local/gcc-arm-none-eabi-4_8-2014q2/bin/../lib/gcc/arm-none-eabi/4.8.4/../../../../arm-none-eabi/lib/armv6-m/libg.a(lib_a-svfiprintf.o)
 .text.__ssprint_r
                0x00004288      0x12c /usr/local/gcc-arm-none-eabi-4_8-2014q2/bin/../lib/gcc/arm-none-eabi/4.8.4/../../../../arm-none-eabi/lib/armv6-m/libg.a(lib_a-svfiprintf.o)
                0x00004288                __ssprint_r
 .text._svfiprintf_r
                0x000043b4      0xac4 /usr/local/gcc-arm-none-eabi-4_8-2014q2/bin/../lib/gcc/arm-none-eabi/4.8.4/../../../../arm-none-eabi/lib/armv6-m/libg.a(lib_a-svfiprintf.o)
                0x000043b4                _svfiprintf_r
 .text          0x00004e78        0x0 /usr/local/gcc-arm-none-eabi-4_8-2014q2/bin/../lib/gcc/arm-none-eabi/4.8.4/../../../../arm-none-eabi/lib/armv6-m/libg.a(lib_a-__atexit.o)
 .text.__register_exitproc
                0x00004e78       0xc0 /usr/local/gcc-arm-none-eabi-4_8-2014q2/bin/../lib/gcc/arm-none-eabi/4.8.4/../../../../arm-none-eabi/lib/armv6-m/libg.a(lib_a-__atexit.o)
                0x00004e78                __register_exitproc
 .text          0x00004f38        0x0 /usr/local/gcc-arm-none-eabi-4_8-2014q2/bin/../lib/gcc/arm-none-eabi/4.8.4/../../../../arm-none-eabi/lib/armv6-m/libg.a(lib_a-callocr.o)
 .text._calloc_r
                0x00004f38       0x60 /usr/local/gcc-arm-none-eabi-4_8-2014q2/bin/../lib/gcc/arm-none-eabi/4.8.4/../../../../arm-none-eabi/lib/armv6-m/libg.a(lib_a-callocr.o)
                0x00004f38                _calloc_r
 .text          0x00004f98        0x0 /usr/local/gcc-arm-none-eabi-4_8-2014q2/bin/../lib/gcc/arm-none-eabi/4.8.4/../../../../arm-none-eabi/lib/armv6-m/libg.a(lib_a-freer.o)
 .text._malloc_trim_r
                0x00004f98       0xa0 /usr/local/gcc-arm-none-eabi-4_8-2014q2/bin/../lib/gcc/arm-none-eabi/4.8.4/../../../../arm-none-eabi/lib/armv6-m/libg.a(lib_a-freer.o)
                0x00004f98                _malloc_trim_r
 .text._free_r  0x00005038      0x190 /usr/local/gcc-arm-none-eabi-4_8-2014q2/bin/../lib/gcc/arm-none-eabi/4.8.4/../../../../arm-none-eabi/lib/armv6-m/libg.a(lib_a-freer.o)
                0x00005038                _free_r
 .text          0x000051c8        0x0 /usr/local/gcc-arm-none-eabi-4_8-2014q2/bin/../lib/gcc/arm-none-eabi/4.8.4/../../../../arm-none-eabi/lib/armv6-m/libg.a(lib_a-memmove.o)
 .text.memmove  0x000051c8       0xa4 /usr/local/gcc-arm-none-eabi-4_8-2014q2/bin/../lib/gcc/arm-none-eabi/4.8.4/../../../../arm-none-eabi/lib/armv6-m/libg.a(lib_a-memmove.o)
                0x000051c8                memmove
 .text          0x0000526c        0x0 /usr/local/gcc-arm-none-eabi-4_8-2014q2/bin/../lib/gcc/arm-none-eabi/4.8.4/../../../../arm-none-eabi/lib/armv6-m/libg.a(lib_a-reallocr.o)
 .text._realloc_r
                0x0000526c      0x360 /usr/local/gcc-arm-none-eabi-4_8-2014q2/bin/../lib/gcc/arm-none-eabi/4.8.4/../../../../arm-none-eabi/lib/armv6-m/libg.a(lib_a-reallocr.o)
                0x0000526c                _realloc_r
 .text          0x000055cc        0x0 /usr/local/gcc-arm-none-eabi-4_8-2014q2/bin/../lib/gcc/arm-none-eabi/4.8.4/../../../../arm-none-eabi/lib/armv6-m/libg.a(lib_a-reent.o)
 .text.cleanup_glue
                0x000055cc       0x1c /usr/local/gcc-arm-none-eabi-4_8-2014q2/bin/../lib/gcc/arm-none-eabi/4.8.4/../../../../arm-none-eabi/lib/armv6-m/libg.a(lib_a-reent.o)
                0x000055cc                cleanup_glue
 .text._reclaim_reent
                0x000055e8       0xa0 /usr/local/gcc-arm-none-eabi-4_8-2014q2/bin/../lib/gcc/arm-none-eabi/4.8.4/../../../../arm-none-eabi/lib/armv6-m/libg.a(lib_a-reent.o)
                0x000055e8                _reclaim_reent
 .text          0x00005688       0xc0 /usr/local/gcc-arm-none-eabi-4_8-2014q2/bin/../lib/gcc/arm-none-eabi/4.8.4/armv6-m/libgcc.a(_divsi3.o)
                0x00005688                __aeabi_idiv
                0x00005688                __divsi3
                0x00005734                __aeabi_idivmod
 .text          0x00005748       0x7c /usr/local/gcc-arm-none-eabi-4_8-2014q2/bin/../lib/gcc/arm-none-eabi/4.8.4/armv6-m/libgcc.a(_arm_cmpdf2.o)
                0x00005748                __aeabi_cdrcmple
                0x00005758                __aeabi_cdcmple
                0x00005758                __aeabi_cdcmpeq
                0x00005768                __aeabi_dcmpeq
                0x00005774                __aeabi_dcmplt
                0x00005788                __aeabi_dcmple
                0x0000579c                __aeabi_dcmpgt
                0x000057b0                __aeabi_dcmpge
 .text          0x000057c4       0x40 /usr/local/gcc-arm-none-eabi-4_8-2014q2/bin/../lib/gcc/arm-none-eabi/4.8.4/armv6-m/libgcc.a(_aeabi_uldivmod.o)
                0x000057c4                __aeabi_uldivmod
 .text          0x00005804       0x6c /usr/local/gcc-arm-none-eabi-4_8-2014q2/bin/../lib/gcc/arm-none-eabi/4.8.4/armv6-m/libgcc.a(bpabi.o)
                0x00005804                __gnu_ldivmod_helper
                0x0000583c                __gnu_uldivmod_helper
 .text          0x00005870      0x644 /usr/local/gcc-arm-none-eabi-4_8-2014q2/bin/../lib/gcc/arm-none-eabi/4.8.4/armv6-m/libgcc.a(adddf3.o)
                0x00005870                __aeabi_dadd
 .text          0x00005eb4      0x648 /usr/local/gcc-arm-none-eabi-4_8-2014q2/bin/../lib/gcc/arm-none-eabi/4.8.4/armv6-m/libgcc.a(divdf3.o)
                0x00005eb4                __aeabi_ddiv
 .text          0x000064fc       0x94 /usr/local/gcc-arm-none-eabi-4_8-2014q2/bin/../lib/gcc/arm-none-eabi/4.8.4/armv6-m/libgcc.a(eqdf2.o)
                0x000064fc                __eqdf2
                0x000064fc                __nedf2
 .text          0x00006590       0xfc /usr/local/gcc-arm-none-eabi-4_8-2014q2/bin/../lib/gcc/arm-none-eabi/4.8.4/armv6-m/libgcc.a(gedf2.o)
                0x00006590                __gtdf2
                0x00006590                __gedf2
 .text          0x0000668c       0xfc /usr/local/gcc-arm-none-eabi-4_8-2014q2/bin/../lib/gcc/arm-none-eabi/4.8.4/armv6-m/libgcc.a(ledf2.o)
                0x0000668c                __ltdf2
                0x0000668c                __ledf2
 .text          0x00006788      0x520 /usr/local/gcc-arm-none-eabi-4_8-2014q2/bin/../lib/gcc/arm-none-eabi/4.8.4/armv6-m/libgcc.a(muldf3.o)
                0x00006788                __aeabi_dmul
 .text          0x00006ca8      0x668 /usr/local/gcc-arm-none-eabi-4_8-2014q2/bin/../lib/gcc/arm-none-eabi/4.8.4/armv6-m/libgcc.a(subdf3.o)
                0x00006ca8                __aeabi_dsub
 .text          0x00007310       0x68 /usr/local/gcc-arm-none-eabi-4_8-2014q2/bin/../lib/gcc/arm-none-eabi/4.8.4/armv6-m/libgcc.a(fixdfsi.o)
                0x00007310                __aeabi_d2iz
 .text          0x00007378       0x7c /usr/local/gcc-arm-none-eabi-4_8-2014q2/bin/../lib/gcc/arm-none-eabi/4.8.4/armv6-m/libgcc.a(floatsidf.o)
                0x00007378                __aeabi_i2d
 .text          0x000073f4       0x68 /usr/local/gcc-arm-none-eabi-4_8-2014q2/bin/../lib/gcc/arm-none-eabi/4.8.4/armv6-m/libgcc.a(floatunsidf.o)
                0x000073f4                __aeabi_ui2d
 .text          0x0000745c       0x3c /usr/local/gcc-arm-none-eabi-4_8-2014q2/bin/../lib/gcc/arm-none-eabi/4.8.4/armv6-m/libgcc.a(_clzsi2.o)
                0x0000745c                __clzsi2
 .text          0x00007498       0x44 /usr/local/gcc-arm-none-eabi-4_8-2014q2/bin/../lib/gcc/arm-none-eabi/4.8.4/armv6-m/libgcc.a(_muldi3.o)
                0x00007498                __aeabi_lmul
                0x00007498                __muldi3
 .text          0x000074dc      0x3b8 /usr/local/gcc-arm-none-eabi-4_8-2014q2/bin/../lib/gcc/arm-none-eabi/4.8.4/armv6-m/libgcc.a(_divdi3.o)
                0x000074dc                __divdi3
 .text          0x00007894      0x384 /usr/local/gcc-arm-none-eabi-4_8-2014q2/bin/../lib/gcc/arm-none-eabi/4.8.4/armv6-m/libgcc.a(_udivdi3.o)
                0x00007894                __udivdi3
 .text          0x00007c18        0x0 /usr/local/gcc-arm-none-eabi-4_8-2014q2/bin/../lib/gcc/arm-none-eabi/4.8.4/armv6-m/crtend.o
 .text          0x00007c18        0x0 /usr/local/gcc-arm-none-eabi-4_8-2014q2/bin/../lib/gcc/arm-none-eabi/4.8.4/armv6-m/crtn.o
 .text          0x00007c18        0x0 /usr/local/gcc-arm-none-eabi-4_8-2014q2/bin/../lib/gcc/arm-none-eabi/4.8.4/../../../../arm-none-eabi/lib/armv6-m/libnosys.a(sbrk.o)
 .text._sbrk    0x00007c18       0x34 /usr/local/gcc-arm-none-eabi-4_8-2014q2/bin/../lib/gcc/arm-none-eabi/4.8.4/../../../../arm-none-eabi/lib/armv6-m/libnosys.a(sbrk.o)
                0x00007c18                _sbrk
 .text          0x00007c4c        0x0 /usr/local/gcc-arm-none-eabi-4_8-2014q2/bin/../lib/gcc/arm-none-eabi/4.8.4/../../../../arm-none-eabi/lib/armv6-m/libnosys.a(_exit.o)
 .text._exit    0x00007c4c        0x4 /usr/local/gcc-arm-none-eabi-4_8-2014q2/bin/../lib/gcc/arm-none-eabi/4.8.4/../../../../arm-none-eabi/lib/armv6-m/libnosys.a(_exit.o)
                0x00007c4c                _exit
 *(.init)
 .init          0x00007c50        0x4 /usr/local/gcc-arm-none-eabi-4_8-2014q2/bin/../lib/gcc/arm-none-eabi/4.8.4/armv6-m/crti.o
                0x00007c50                _init
 .init          0x00007c54        0x8 /usr/local/gcc-arm-none-eabi-4_8-2014q2/bin/../lib/gcc/arm-none-eabi/4.8.4/armv6-m/crtn.o
 *(.fini)
 .fini          0x00007c5c        0x4 /usr/local/gcc-arm-none-eabi-4_8-2014q2/bin/../lib/gcc/arm-none-eabi/4.8.4/armv6-m/crti.o
                0x00007c5c                _fini
 .fini          0x00007c60        0x8 /usr/local/gcc-arm-none-eabi-4_8-2014q2/bin/../lib/gcc/arm-none-eabi/4.8.4/armv6-m/crtn.o
 *crtbegin.o(.ctors)
 *crtbegin?.o(.ctors)
 *(EXCLUDE_FILE(*crtend.o *crtend?.o) .ctors)
 *(SORT(.ctors.*))
 *(.ctors)
 *crtbegin.o(.dtors)
 *crtbegin?.o(.dtors)
 *(EXCLUDE_FILE(*crtend.o *crtend?.o) .dtors)
 *(SORT(.dtors.*))
 *(.dtors)
 *(.rodata*)
 .rodata        0x00007c68        0x8 ./src/uart.o
 .rodata.str1.4
                0x00007c70        0x2 /usr/local/gcc-arm-none-eabi-4_8-2014q2/bin/../lib/gcc/arm-none-eabi/4.8.4/../../../../arm-none-eabi/lib/armv6-m/libg.a(lib_a-impure.o)
                                  0x4 (size before relaxing)
 *fill*         0x00007c72        0x2 
 .rodata._global_impure_ptr
                0x00007c74        0x4 /usr/local/gcc-arm-none-eabi-4_8-2014q2/bin/../lib/gcc/arm-none-eabi/4.8.4/../../../../arm-none-eabi/lib/armv6-m/libg.a(lib_a-impure.o)
                0x00007c74                _global_impure_ptr
 .rodata._svfprintf_r
                0x00007c78      0x164 /usr/local/gcc-arm-none-eabi-4_8-2014q2/bin/../lib/gcc/arm-none-eabi/4.8.4/../../../../arm-none-eabi/lib/armv6-m/libg.a(lib_a-svfprintf.o)
 .rodata.zeroes.6763
                0x00007ddc       0x10 /usr/local/gcc-arm-none-eabi-4_8-2014q2/bin/../lib/gcc/arm-none-eabi/4.8.4/../../../../arm-none-eabi/lib/armv6-m/libg.a(lib_a-svfprintf.o)
 .rodata.str1.4
                0x00007dec       0x42 /usr/local/gcc-arm-none-eabi-4_8-2014q2/bin/../lib/gcc/arm-none-eabi/4.8.4/../../../../arm-none-eabi/lib/armv6-m/libg.a(lib_a-svfprintf.o)
                                 0x44 (size before relaxing)
 *fill*         0x00007e2e        0x2 
 .rodata.blanks.6762
                0x00007e30       0x10 /usr/local/gcc-arm-none-eabi-4_8-2014q2/bin/../lib/gcc/arm-none-eabi/4.8.4/../../../../arm-none-eabi/lib/armv6-m/libg.a(lib_a-svfprintf.o)
 .rodata.str1.4
                0x00007e40       0x10 /usr/local/gcc-arm-none-eabi-4_8-2014q2/bin/../lib/gcc/arm-none-eabi/4.8.4/../../../../arm-none-eabi/lib/armv6-m/libg.a(lib_a-dtoa.o)
                                 0x14 (size before relaxing)
 .rodata.str1.4
                0x00007e50        0xc /usr/local/gcc-arm-none-eabi-4_8-2014q2/bin/../lib/gcc/arm-none-eabi/4.8.4/../../../../arm-none-eabi/lib/armv6-m/libg.a(lib_a-locale.o)
                                 0x14 (size before relaxing)
 *fill*         0x00007e5c        0x4 
 .rodata.__mprec_tens
                0x00007e60       0xc8 /usr/local/gcc-arm-none-eabi-4_8-2014q2/bin/../lib/gcc/arm-none-eabi/4.8.4/../../../../arm-none-eabi/lib/armv6-m/libg.a(lib_a-mprec.o)
                0x00007e60                __mprec_tens
 .rodata.__mprec_bigtens
                0x00007f28       0x28 /usr/local/gcc-arm-none-eabi-4_8-2014q2/bin/../lib/gcc/arm-none-eabi/4.8.4/../../../../arm-none-eabi/lib/armv6-m/libg.a(lib_a-mprec.o)
                0x00007f28                __mprec_bigtens
 .rodata.__mprec_tinytens
                0x00007f50       0x28 /usr/local/gcc-arm-none-eabi-4_8-2014q2/bin/../lib/gcc/arm-none-eabi/4.8.4/../../../../arm-none-eabi/lib/armv6-m/libg.a(lib_a-mprec.o)
                0x00007f50                __mprec_tinytens
 .rodata.p05.5269
                0x00007f78        0xc /usr/local/gcc-arm-none-eabi-4_8-2014q2/bin/../lib/gcc/arm-none-eabi/4.8.4/../../../../arm-none-eabi/lib/armv6-m/libg.a(lib_a-mprec.o)
 .rodata._svfiprintf_r
                0x00007f84      0x164 /usr/local/gcc-arm-none-eabi-4_8-2014q2/bin/../lib/gcc/arm-none-eabi/4.8.4/../../../../arm-none-eabi/lib/armv6-m/libg.a(lib_a-svfiprintf.o)
 .rodata.zeroes.6707
                0x000080e8       0x10 /usr/local/gcc-arm-none-eabi-4_8-2014q2/bin/../lib/gcc/arm-none-eabi/4.8.4/../../../../arm-none-eabi/lib/armv6-m/libg.a(lib_a-svfiprintf.o)
 .rodata.str1.4
                0x00000000       0x30 /usr/local/gcc-arm-none-eabi-4_8-2014q2/bin/../lib/gcc/arm-none-eabi/4.8.4/../../../../arm-none-eabi/lib/armv6-m/libg.a(lib_a-svfiprintf.o)
 .rodata.blanks.6706
                0x000080f8       0x10 /usr/local/gcc-arm-none-eabi-4_8-2014q2/bin/../lib/gcc/arm-none-eabi/4.8.4/../../../../arm-none-eabi/lib/armv6-m/libg.a(lib_a-svfiprintf.o)
 .rodata        0x00008108       0x40 /usr/local/gcc-arm-none-eabi-4_8-2014q2/bin/../lib/gcc/arm-none-eabi/4.8.4/armv6-m/libgcc.a(divdf3.o)
 .rodata        0x00008148       0x40 /usr/local/gcc-arm-none-eabi-4_8-2014q2/bin/../lib/gcc/arm-none-eabi/4.8.4/armv6-m/libgcc.a(muldf3.o)
 *(.eh_frame*)
 .eh_frame      0x00008188        0x0 /usr/local/gcc-arm-none-eabi-4_8-2014q2/bin/../lib/gcc/arm-none-eabi/4.8.4/armv6-m/crtbegin.o
 .eh_frame      0x00008188        0x4 /usr/local/gcc-arm-none-eabi-4_8-2014q2/bin/../lib/gcc/arm-none-eabi/4.8.4/armv6-m/crtend.o

.glue_7         0x0000818c        0x0
 .glue_7        0x00000000        0x0 linker stubs

.glue_7t        0x0000818c        0x0
 .glue_7t       0x00000000        0x0 linker stubs

.vfp11_veneer   0x0000818c        0x0
 .vfp11_veneer  0x00000000        0x0 linker stubs

.v4_bx          0x0000818c        0x0
 .v4_bx         0x00000000        0x0 linker stubs

.iplt           0x0000818c        0x0
 .iplt          0x00000000        0x0 /usr/local/gcc-arm-none-eabi-4_8-2014q2/bin/../lib/gcc/arm-none-eabi/4.8.4/armv6-m/crtbegin.o

.ARM.extab      0x0000818c        0x0
 *(.ARM.extab* .gnu.linkonce.armextab.*)
 .ARM.extab     0x0000818c        0x0 /usr/local/gcc-arm-none-eabi-4_8-2014q2/bin/../lib/gcc/arm-none-eabi/4.8.4/../../../../arm-none-eabi/lib/armv6-m/crt0.o
 .ARM.extab     0x0000818c        0x0 ./src/gcc_startup_nrf51.o
 .ARM.extab     0x0000818c        0x0 /usr/local/gcc-arm-none-eabi-4_8-2014q2/bin/../lib/gcc/arm-none-eabi/4.8.4/armv6-m/libgcc.a(_divdi3.o)
 .ARM.extab     0x0000818c        0x0 /usr/local/gcc-arm-none-eabi-4_8-2014q2/bin/../lib/gcc/arm-none-eabi/4.8.4/armv6-m/libgcc.a(_udivdi3.o)
                0x0000818c                __exidx_start = .

.ARM.exidx      0x0000818c        0x8
 *(.ARM.exidx* .gnu.linkonce.armexidx.*)
 .ARM.exidx     0x0000818c        0x8 /usr/local/gcc-arm-none-eabi-4_8-2014q2/bin/../lib/gcc/arm-none-eabi/4.8.4/../../../../arm-none-eabi/lib/armv6-m/crt0.o
 .ARM.exidx     0x00008194        0x0 ./src/gcc_startup_nrf51.o
                                  0x8 (size before relaxing)
 .ARM.exidx     0x00008194        0x0 /usr/local/gcc-arm-none-eabi-4_8-2014q2/bin/../lib/gcc/arm-none-eabi/4.8.4/armv6-m/libgcc.a(_divdi3.o)
                                  0x8 (size before relaxing)
 .ARM.exidx     0x00008194        0x0 /usr/local/gcc-arm-none-eabi-4_8-2014q2/bin/../lib/gcc/arm-none-eabi/4.8.4/armv6-m/libgcc.a(_udivdi3.o)
                                  0x8 (size before relaxing)
                0x00008194                __exidx_end = .
                0x00008194                __etext = .

.rel.dyn        0x00008194        0x0
 .rel.iplt      0x00000000        0x0 /usr/local/gcc-arm-none-eabi-4_8-2014q2/bin/../lib/gcc/arm-none-eabi/4.8.4/armv6-m/crtbegin.o

.data           0x20000000      0x8d0 load address 0x00008194
                0x20000000                __data_start__ = .
 *(vtable)
 *(.data*)
 .data          0x20000000        0x0 /usr/local/gcc-arm-none-eabi-4_8-2014q2/bin/../lib/gcc/arm-none-eabi/4.8.4/armv6-m/crti.o
 .data          0x20000000        0x4 /usr/local/gcc-arm-none-eabi-4_8-2014q2/bin/../lib/gcc/arm-none-eabi/4.8.4/armv6-m/crtbegin.o
                0x20000000                __dso_handle
 .data          0x20000004        0x0 /usr/local/gcc-arm-none-eabi-4_8-2014q2/bin/../lib/gcc/arm-none-eabi/4.8.4/../../../../arm-none-eabi/lib/armv6-m/crt0.o
 .data          0x20000004        0x0 ./src/adc.o
 .data          0x20000004        0x0 ./src/gcc_startup_nrf51.o
 .data          0x20000004        0x0 ./src/gpio.o
 .data          0x20000004        0x0 ./src/main.o
 .data          0x20000004        0x4 ./src/system_nrf51.o
                0x20000004                SystemCoreClock
 .data          0x20000008        0x0 ./src/timer.o
 .data          0x20000008        0x0 ./src/uart.o
 .data          0x20000008        0x0 ./simple_uart/simple_uart.o
 .data          0x20000008        0x0 /usr/local/gcc-arm-none-eabi-4_8-2014q2/bin/../lib/gcc/arm-none-eabi/4.8.4/armv6-m/libgcc.a(_udivsi3.o)
 .data          0x20000008        0x0 /usr/local/gcc-arm-none-eabi-4_8-2014q2/bin/../lib/gcc/arm-none-eabi/4.8.4/armv6-m/libgcc.a(_dvmd_tls.o)
 .data          0x20000008        0x0 /usr/local/gcc-arm-none-eabi-4_8-2014q2/bin/../lib/gcc/arm-none-eabi/4.8.4/../../../../arm-none-eabi/lib/armv6-m/libg.a(lib_a-exit.o)
 .data          0x20000008        0x0 /usr/local/gcc-arm-none-eabi-4_8-2014q2/bin/../lib/gcc/arm-none-eabi/4.8.4/../../../../arm-none-eabi/lib/armv6-m/libg.a(lib_a-impure.o)
 .data.impure_data
                0x20000008      0x428 /usr/local/gcc-arm-none-eabi-4_8-2014q2/bin/../lib/gcc/arm-none-eabi/4.8.4/../../../../arm-none-eabi/lib/armv6-m/libg.a(lib_a-impure.o)
 .data._impure_ptr
                0x20000430        0x4 /usr/local/gcc-arm-none-eabi-4_8-2014q2/bin/../lib/gcc/arm-none-eabi/4.8.4/../../../../arm-none-eabi/lib/armv6-m/libg.a(lib_a-impure.o)
                0x20000430                _impure_ptr
 .data          0x20000434        0x0 /usr/local/gcc-arm-none-eabi-4_8-2014q2/bin/../lib/gcc/arm-none-eabi/4.8.4/../../../../arm-none-eabi/lib/armv6-m/libg.a(lib_a-init.o)
 .data          0x20000434        0x0 /usr/local/gcc-arm-none-eabi-4_8-2014q2/bin/../lib/gcc/arm-none-eabi/4.8.4/../../../../arm-none-eabi/lib/armv6-m/libg.a(lib_a-memset.o)
 .data          0x20000434        0x0 /usr/local/gcc-arm-none-eabi-4_8-2014q2/bin/../lib/gcc/arm-none-eabi/4.8.4/../../../../arm-none-eabi/lib/armv6-m/libg.a(lib_a-sprintf.o)
 .data          0x20000434        0x0 /usr/local/gcc-arm-none-eabi-4_8-2014q2/bin/../lib/gcc/arm-none-eabi/4.8.4/../../../../arm-none-eabi/lib/armv6-m/libg.a(lib_a-svfprintf.o)
 .data          0x20000434        0x0 /usr/local/gcc-arm-none-eabi-4_8-2014q2/bin/../lib/gcc/arm-none-eabi/4.8.4/../../../../arm-none-eabi/lib/armv6-m/libg.a(lib_a-__call_atexit.o)
 .data          0x20000434        0x0 /usr/local/gcc-arm-none-eabi-4_8-2014q2/bin/../lib/gcc/arm-none-eabi/4.8.4/../../../../arm-none-eabi/lib/armv6-m/libg.a(lib_a-atexit.o)
 .data          0x20000434        0x0 /usr/local/gcc-arm-none-eabi-4_8-2014q2/bin/../lib/gcc/arm-none-eabi/4.8.4/../../../../arm-none-eabi/lib/armv6-m/libg.a(lib_a-dtoa.o)
 .data          0x20000434        0x0 /usr/local/gcc-arm-none-eabi-4_8-2014q2/bin/../lib/gcc/arm-none-eabi/4.8.4/../../../../arm-none-eabi/lib/armv6-m/libg.a(lib_a-fini.o)
 .data          0x20000434        0x0 /usr/local/gcc-arm-none-eabi-4_8-2014q2/bin/../lib/gcc/arm-none-eabi/4.8.4/../../../../arm-none-eabi/lib/armv6-m/libg.a(lib_a-locale.o)
 .data.lc_message_charset
                0x20000434       0x20 /usr/local/gcc-arm-none-eabi-4_8-2014q2/bin/../lib/gcc/arm-none-eabi/4.8.4/../../../../arm-none-eabi/lib/armv6-m/libg.a(lib_a-locale.o)
 .data.lconv    0x20000454       0x38 /usr/local/gcc-arm-none-eabi-4_8-2014q2/bin/../lib/gcc/arm-none-eabi/4.8.4/../../../../arm-none-eabi/lib/armv6-m/libg.a(lib_a-locale.o)
 .data.lc_ctype_charset
                0x2000048c       0x20 /usr/local/gcc-arm-none-eabi-4_8-2014q2/bin/../lib/gcc/arm-none-eabi/4.8.4/../../../../arm-none-eabi/lib/armv6-m/libg.a(lib_a-locale.o)
 .data.__mb_cur_max
                0x200004ac        0x4 /usr/local/gcc-arm-none-eabi-4_8-2014q2/bin/../lib/gcc/arm-none-eabi/4.8.4/../../../../arm-none-eabi/lib/armv6-m/libg.a(lib_a-locale.o)
                0x200004ac                __mb_cur_max
 .data          0x200004b0        0x0 /usr/local/gcc-arm-none-eabi-4_8-2014q2/bin/../lib/gcc/arm-none-eabi/4.8.4/../../../../arm-none-eabi/lib/armv6-m/libg.a(lib_a-mallocr.o)
 .data.__malloc_av_
                0x200004b0      0x408 /usr/local/gcc-arm-none-eabi-4_8-2014q2/bin/../lib/gcc/arm-none-eabi/4.8.4/../../../../arm-none-eabi/lib/armv6-m/libg.a(lib_a-mallocr.o)
                0x200004b0                __malloc_av_
 .data.__malloc_trim_threshold
                0x200008b8        0x4 /usr/local/gcc-arm-none-eabi-4_8-2014q2/bin/../lib/gcc/arm-none-eabi/4.8.4/../../../../arm-none-eabi/lib/armv6-m/libg.a(lib_a-mallocr.o)
                0x200008b8                __malloc_trim_threshold
 .data.__malloc_sbrk_base
                0x200008bc        0x4 /usr/local/gcc-arm-none-eabi-4_8-2014q2/bin/../lib/gcc/arm-none-eabi/4.8.4/../../../../arm-none-eabi/lib/armv6-m/libg.a(lib_a-mallocr.o)
                0x200008bc                __malloc_sbrk_base
 .data          0x200008c0        0x0 /usr/local/gcc-arm-none-eabi-4_8-2014q2/bin/../lib/gcc/arm-none-eabi/4.8.4/../../../../arm-none-eabi/lib/armv6-m/libg.a(lib_a-memchr-stub.o)
 .data          0x200008c0        0x0 /usr/local/gcc-arm-none-eabi-4_8-2014q2/bin/../lib/gcc/arm-none-eabi/4.8.4/../../../../arm-none-eabi/lib/armv6-m/libg.a(lib_a-memcpy-stub.o)
 .data          0x200008c0        0x0 /usr/local/gcc-arm-none-eabi-4_8-2014q2/bin/../lib/gcc/arm-none-eabi/4.8.4/../../../../arm-none-eabi/lib/armv6-m/libg.a(lib_a-mlock.o)
 .data          0x200008c0        0x0 /usr/local/gcc-arm-none-eabi-4_8-2014q2/bin/../lib/gcc/arm-none-eabi/4.8.4/../../../../arm-none-eabi/lib/armv6-m/libg.a(lib_a-mprec.o)
 .data          0x200008c0        0x0 /usr/local/gcc-arm-none-eabi-4_8-2014q2/bin/../lib/gcc/arm-none-eabi/4.8.4/../../../../arm-none-eabi/lib/armv6-m/libg.a(lib_a-s_fpclassify.o)
 .data          0x200008c0        0x0 /usr/local/gcc-arm-none-eabi-4_8-2014q2/bin/../lib/gcc/arm-none-eabi/4.8.4/../../../../arm-none-eabi/lib/armv6-m/libg.a(lib_a-sbrkr.o)
 .data          0x200008c0        0x0 /usr/local/gcc-arm-none-eabi-4_8-2014q2/bin/../lib/gcc/arm-none-eabi/4.8.4/../../../../arm-none-eabi/lib/armv6-m/libg.a(lib_a-strcmp.o)
 .data          0x200008c0        0x0 /usr/local/gcc-arm-none-eabi-4_8-2014q2/bin/../lib/gcc/arm-none-eabi/4.8.4/../../../../arm-none-eabi/lib/armv6-m/libg.a(lib_a-strlen.o)
 .data          0x200008c0        0x0 /usr/local/gcc-arm-none-eabi-4_8-2014q2/bin/../lib/gcc/arm-none-eabi/4.8.4/../../../../arm-none-eabi/lib/armv6-m/libg.a(lib_a-svfiprintf.o)
 .data          0x200008c0        0x0 /usr/local/gcc-arm-none-eabi-4_8-2014q2/bin/../lib/gcc/arm-none-eabi/4.8.4/../../../../arm-none-eabi/lib/armv6-m/libg.a(lib_a-__atexit.o)
 .data          0x200008c0        0x0 /usr/local/gcc-arm-none-eabi-4_8-2014q2/bin/../lib/gcc/arm-none-eabi/4.8.4/../../../../arm-none-eabi/lib/armv6-m/libg.a(lib_a-callocr.o)
 .data          0x200008c0        0x0 /usr/local/gcc-arm-none-eabi-4_8-2014q2/bin/../lib/gcc/arm-none-eabi/4.8.4/../../../../arm-none-eabi/lib/armv6-m/libg.a(lib_a-freer.o)
 .data          0x200008c0        0x0 /usr/local/gcc-arm-none-eabi-4_8-2014q2/bin/../lib/gcc/arm-none-eabi/4.8.4/../../../../arm-none-eabi/lib/armv6-m/libg.a(lib_a-memmove.o)
 .data          0x200008c0        0x0 /usr/local/gcc-arm-none-eabi-4_8-2014q2/bin/../lib/gcc/arm-none-eabi/4.8.4/../../../../arm-none-eabi/lib/armv6-m/libg.a(lib_a-reallocr.o)
 .data          0x200008c0        0x0 /usr/local/gcc-arm-none-eabi-4_8-2014q2/bin/../lib/gcc/arm-none-eabi/4.8.4/../../../../arm-none-eabi/lib/armv6-m/libg.a(lib_a-reent.o)
 .data          0x200008c0        0x0 /usr/local/gcc-arm-none-eabi-4_8-2014q2/bin/../lib/gcc/arm-none-eabi/4.8.4/armv6-m/libgcc.a(_divsi3.o)
 .data          0x200008c0        0x0 /usr/local/gcc-arm-none-eabi-4_8-2014q2/bin/../lib/gcc/arm-none-eabi/4.8.4/armv6-m/libgcc.a(_arm_cmpdf2.o)
 .data          0x200008c0        0x0 /usr/local/gcc-arm-none-eabi-4_8-2014q2/bin/../lib/gcc/arm-none-eabi/4.8.4/armv6-m/libgcc.a(_aeabi_uldivmod.o)
 .data          0x200008c0        0x0 /usr/local/gcc-arm-none-eabi-4_8-2014q2/bin/../lib/gcc/arm-none-eabi/4.8.4/armv6-m/libgcc.a(bpabi.o)
 .data          0x200008c0        0x0 /usr/local/gcc-arm-none-eabi-4_8-2014q2/bin/../lib/gcc/arm-none-eabi/4.8.4/armv6-m/libgcc.a(adddf3.o)
 .data          0x200008c0        0x0 /usr/local/gcc-arm-none-eabi-4_8-2014q2/bin/../lib/gcc/arm-none-eabi/4.8.4/armv6-m/libgcc.a(divdf3.o)
 .data          0x200008c0        0x0 /usr/local/gcc-arm-none-eabi-4_8-2014q2/bin/../lib/gcc/arm-none-eabi/4.8.4/armv6-m/libgcc.a(eqdf2.o)
 .data          0x200008c0        0x0 /usr/local/gcc-arm-none-eabi-4_8-2014q2/bin/../lib/gcc/arm-none-eabi/4.8.4/armv6-m/libgcc.a(gedf2.o)
 .data          0x200008c0        0x0 /usr/local/gcc-arm-none-eabi-4_8-2014q2/bin/../lib/gcc/arm-none-eabi/4.8.4/armv6-m/libgcc.a(ledf2.o)
 .data          0x200008c0        0x0 /usr/local/gcc-arm-none-eabi-4_8-2014q2/bin/../lib/gcc/arm-none-eabi/4.8.4/armv6-m/libgcc.a(muldf3.o)
 .data          0x200008c0        0x0 /usr/local/gcc-arm-none-eabi-4_8-2014q2/bin/../lib/gcc/arm-none-eabi/4.8.4/armv6-m/libgcc.a(subdf3.o)
 .data          0x200008c0        0x0 /usr/local/gcc-arm-none-eabi-4_8-2014q2/bin/../lib/gcc/arm-none-eabi/4.8.4/armv6-m/libgcc.a(fixdfsi.o)
 .data          0x200008c0        0x0 /usr/local/gcc-arm-none-eabi-4_8-2014q2/bin/../lib/gcc/arm-none-eabi/4.8.4/armv6-m/libgcc.a(floatsidf.o)
 .data          0x200008c0        0x0 /usr/local/gcc-arm-none-eabi-4_8-2014q2/bin/../lib/gcc/arm-none-eabi/4.8.4/armv6-m/libgcc.a(floatunsidf.o)
 .data          0x200008c0        0x0 /usr/local/gcc-arm-none-eabi-4_8-2014q2/bin/../lib/gcc/arm-none-eabi/4.8.4/armv6-m/libgcc.a(_clzsi2.o)
 .data          0x200008c0        0x0 /usr/local/gcc-arm-none-eabi-4_8-2014q2/bin/../lib/gcc/arm-none-eabi/4.8.4/armv6-m/libgcc.a(_muldi3.o)
 .data          0x200008c0        0x0 /usr/local/gcc-arm-none-eabi-4_8-2014q2/bin/../lib/gcc/arm-none-eabi/4.8.4/armv6-m/libgcc.a(_divdi3.o)
 .data          0x200008c0        0x0 /usr/local/gcc-arm-none-eabi-4_8-2014q2/bin/../lib/gcc/arm-none-eabi/4.8.4/armv6-m/libgcc.a(_udivdi3.o)
 .data          0x200008c0        0x0 /usr/local/gcc-arm-none-eabi-4_8-2014q2/bin/../lib/gcc/arm-none-eabi/4.8.4/armv6-m/crtend.o
 .data          0x200008c0        0x0 /usr/local/gcc-arm-none-eabi-4_8-2014q2/bin/../lib/gcc/arm-none-eabi/4.8.4/armv6-m/crtn.o
 .data          0x200008c0        0x0 /usr/local/gcc-arm-none-eabi-4_8-2014q2/bin/../lib/gcc/arm-none-eabi/4.8.4/../../../../arm-none-eabi/lib/armv6-m/libnosys.a(sbrk.o)
 .data          0x200008c0        0x0 /usr/local/gcc-arm-none-eabi-4_8-2014q2/bin/../lib/gcc/arm-none-eabi/4.8.4/../../../../arm-none-eabi/lib/armv6-m/libnosys.a(_exit.o)
                0x200008c0                . = ALIGN (0x4)
                0x200008c0                PROVIDE (__preinit_array_start, .)
 *(.preinit_array)
                0x200008c0                PROVIDE (__preinit_array_end, .)
                0x200008c0                . = ALIGN (0x4)
                0x200008c0                PROVIDE (__init_array_start, .)
 *(SORT(.init_array.*))
 .init_array.00000
                0x200008c0        0x4 /usr/local/gcc-arm-none-eabi-4_8-2014q2/bin/../lib/gcc/arm-none-eabi/4.8.4/../../../../arm-none-eabi/lib/armv6-m/libg.a(lib_a-__call_atexit.o)
 *(.init_array)
 .init_array    0x200008c4        0x4 /usr/local/gcc-arm-none-eabi-4_8-2014q2/bin/../lib/gcc/arm-none-eabi/4.8.4/armv6-m/crtbegin.o
                0x200008c8                PROVIDE (__init_array_end, .)
                0x200008c8                . = ALIGN (0x4)
                0x200008c8                PROVIDE (__fini_array_start, .)
 *(SORT(.fini_array.*))
 *(.fini_array)
 .fini_array    0x200008c8        0x4 /usr/local/gcc-arm-none-eabi-4_8-2014q2/bin/../lib/gcc/arm-none-eabi/4.8.4/armv6-m/crtbegin.o
                0x200008cc                PROVIDE (__fini_array_end, .)
 *(.jcr)
 .jcr           0x200008cc        0x0 /usr/local/gcc-arm-none-eabi-4_8-2014q2/bin/../lib/gcc/arm-none-eabi/4.8.4/armv6-m/crtbegin.o
 .jcr           0x200008cc        0x4 /usr/local/gcc-arm-none-eabi-4_8-2014q2/bin/../lib/gcc/arm-none-eabi/4.8.4/armv6-m/crtend.o
                0x200008d0                . = ALIGN (0x4)
                0x200008d0                __data_end__ = .

.igot.plt       0x200008d0        0x0 load address 0x00008a64
 .igot.plt      0x00000000        0x0 /usr/local/gcc-arm-none-eabi-4_8-2014q2/bin/../lib/gcc/arm-none-eabi/4.8.4/armv6-m/crtbegin.o

.bss            0x200008d0       0x68 load address 0x00008a64
                0x200008d0                . = ALIGN (0x4)
                0x200008d0                __bss_start__ = .
 *(.bss*)
 .bss           0x200008d0        0x0 /usr/local/gcc-arm-none-eabi-4_8-2014q2/bin/../lib/gcc/arm-none-eabi/4.8.4/armv6-m/crti.o
 .bss           0x200008d0       0x1c /usr/local/gcc-arm-none-eabi-4_8-2014q2/bin/../lib/gcc/arm-none-eabi/4.8.4/armv6-m/crtbegin.o
 .bss           0x200008ec        0x0 /usr/local/gcc-arm-none-eabi-4_8-2014q2/bin/../lib/gcc/arm-none-eabi/4.8.4/../../../../arm-none-eabi/lib/armv6-m/crt0.o
 .bss           0x200008ec        0x0 ./src/adc.o
 .bss           0x200008ec        0x0 ./src/gcc_startup_nrf51.o
 .bss           0x200008ec        0x0 ./src/gpio.o
 .bss           0x200008ec        0x0 ./src/main.o
 .bss           0x200008ec        0x0 ./src/system_nrf51.o
 .bss           0x200008ec        0x0 ./src/timer.o
 .bss           0x200008ec        0x0 ./src/uart.o
 .bss           0x200008ec        0x0 ./simple_uart/simple_uart.o
 .bss           0x200008ec        0x0 /usr/local/gcc-arm-none-eabi-4_8-2014q2/bin/../lib/gcc/arm-none-eabi/4.8.4/armv6-m/libgcc.a(_udivsi3.o)
 .bss           0x200008ec        0x0 /usr/local/gcc-arm-none-eabi-4_8-2014q2/bin/../lib/gcc/arm-none-eabi/4.8.4/armv6-m/libgcc.a(_dvmd_tls.o)
 .bss           0x200008ec        0x0 /usr/local/gcc-arm-none-eabi-4_8-2014q2/bin/../lib/gcc/arm-none-eabi/4.8.4/../../../../arm-none-eabi/lib/armv6-m/libg.a(lib_a-exit.o)
 .bss           0x200008ec        0x0 /usr/local/gcc-arm-none-eabi-4_8-2014q2/bin/../lib/gcc/arm-none-eabi/4.8.4/../../../../arm-none-eabi/lib/armv6-m/libg.a(lib_a-impure.o)
 .bss           0x200008ec        0x0 /usr/local/gcc-arm-none-eabi-4_8-2014q2/bin/../lib/gcc/arm-none-eabi/4.8.4/../../../../arm-none-eabi/lib/armv6-m/libg.a(lib_a-init.o)
 .bss           0x200008ec        0x0 /usr/local/gcc-arm-none-eabi-4_8-2014q2/bin/../lib/gcc/arm-none-eabi/4.8.4/../../../../arm-none-eabi/lib/armv6-m/libg.a(lib_a-memset.o)
 .bss           0x200008ec        0x0 /usr/local/gcc-arm-none-eabi-4_8-2014q2/bin/../lib/gcc/arm-none-eabi/4.8.4/../../../../arm-none-eabi/lib/armv6-m/libg.a(lib_a-sprintf.o)
 .bss           0x200008ec        0x0 /usr/local/gcc-arm-none-eabi-4_8-2014q2/bin/../lib/gcc/arm-none-eabi/4.8.4/../../../../arm-none-eabi/lib/armv6-m/libg.a(lib_a-svfprintf.o)
 .bss           0x200008ec        0x0 /usr/local/gcc-arm-none-eabi-4_8-2014q2/bin/../lib/gcc/arm-none-eabi/4.8.4/../../../../arm-none-eabi/lib/armv6-m/libg.a(lib_a-__call_atexit.o)
 .bss           0x200008ec        0x0 /usr/local/gcc-arm-none-eabi-4_8-2014q2/bin/../lib/gcc/arm-none-eabi/4.8.4/../../../../arm-none-eabi/lib/armv6-m/libg.a(lib_a-atexit.o)
 .bss           0x200008ec        0x0 /usr/local/gcc-arm-none-eabi-4_8-2014q2/bin/../lib/gcc/arm-none-eabi/4.8.4/../../../../arm-none-eabi/lib/armv6-m/libg.a(lib_a-dtoa.o)
 .bss           0x200008ec        0x0 /usr/local/gcc-arm-none-eabi-4_8-2014q2/bin/../lib/gcc/arm-none-eabi/4.8.4/../../../../arm-none-eabi/lib/armv6-m/libg.a(lib_a-fini.o)
 .bss           0x200008ec        0x0 /usr/local/gcc-arm-none-eabi-4_8-2014q2/bin/../lib/gcc/arm-none-eabi/4.8.4/../../../../arm-none-eabi/lib/armv6-m/libg.a(lib_a-locale.o)
 .bss._PathLocale
                0x200008ec        0x4 /usr/local/gcc-arm-none-eabi-4_8-2014q2/bin/../lib/gcc/arm-none-eabi/4.8.4/../../../../arm-none-eabi/lib/armv6-m/libg.a(lib_a-locale.o)
                0x200008ec                _PathLocale
 .bss.__nlocale_changed
                0x200008f0        0x4 /usr/local/gcc-arm-none-eabi-4_8-2014q2/bin/../lib/gcc/arm-none-eabi/4.8.4/../../../../arm-none-eabi/lib/armv6-m/libg.a(lib_a-locale.o)
                0x200008f0                __nlocale_changed
 .bss.__mlocale_changed
                0x200008f4        0x4 /usr/local/gcc-arm-none-eabi-4_8-2014q2/bin/../lib/gcc/arm-none-eabi/4.8.4/../../../../arm-none-eabi/lib/armv6-m/libg.a(lib_a-locale.o)
                0x200008f4                __mlocale_changed
 .bss           0x200008f8        0x0 /usr/local/gcc-arm-none-eabi-4_8-2014q2/bin/../lib/gcc/arm-none-eabi/4.8.4/../../../../arm-none-eabi/lib/armv6-m/libg.a(lib_a-mallocr.o)
 .bss.__malloc_max_total_mem
                0x200008f8        0x4 /usr/local/gcc-arm-none-eabi-4_8-2014q2/bin/../lib/gcc/arm-none-eabi/4.8.4/../../../../arm-none-eabi/lib/armv6-m/libg.a(lib_a-mallocr.o)
                0x200008f8                __malloc_max_total_mem
 .bss.__malloc_max_sbrked_mem
                0x200008fc        0x4 /usr/local/gcc-arm-none-eabi-4_8-2014q2/bin/../lib/gcc/arm-none-eabi/4.8.4/../../../../arm-none-eabi/lib/armv6-m/libg.a(lib_a-mallocr.o)
                0x200008fc                __malloc_max_sbrked_mem
 .bss.__malloc_top_pad
                0x20000900        0x4 /usr/local/gcc-arm-none-eabi-4_8-2014q2/bin/../lib/gcc/arm-none-eabi/4.8.4/../../../../arm-none-eabi/lib/armv6-m/libg.a(lib_a-mallocr.o)
                0x20000900                __malloc_top_pad
 .bss.__malloc_current_mallinfo
                0x20000904       0x28 /usr/local/gcc-arm-none-eabi-4_8-2014q2/bin/../lib/gcc/arm-none-eabi/4.8.4/../../../../arm-none-eabi/lib/armv6-m/libg.a(lib_a-mallocr.o)
                0x20000904                __malloc_current_mallinfo
 .bss           0x2000092c        0x0 /usr/local/gcc-arm-none-eabi-4_8-2014q2/bin/../lib/gcc/arm-none-eabi/4.8.4/../../../../arm-none-eabi/lib/armv6-m/libg.a(lib_a-memchr-stub.o)
 .bss           0x2000092c        0x0 /usr/local/gcc-arm-none-eabi-4_8-2014q2/bin/../lib/gcc/arm-none-eabi/4.8.4/../../../../arm-none-eabi/lib/armv6-m/libg.a(lib_a-memcpy-stub.o)
 .bss           0x2000092c        0x0 /usr/local/gcc-arm-none-eabi-4_8-2014q2/bin/../lib/gcc/arm-none-eabi/4.8.4/../../../../arm-none-eabi/lib/armv6-m/libg.a(lib_a-mlock.o)
 .bss           0x2000092c        0x0 /usr/local/gcc-arm-none-eabi-4_8-2014q2/bin/../lib/gcc/arm-none-eabi/4.8.4/../../../../arm-none-eabi/lib/armv6-m/libg.a(lib_a-mprec.o)
 .bss           0x2000092c        0x0 /usr/local/gcc-arm-none-eabi-4_8-2014q2/bin/../lib/gcc/arm-none-eabi/4.8.4/../../../../arm-none-eabi/lib/armv6-m/libg.a(lib_a-s_fpclassify.o)
 .bss           0x2000092c        0x0 /usr/local/gcc-arm-none-eabi-4_8-2014q2/bin/../lib/gcc/arm-none-eabi/4.8.4/../../../../arm-none-eabi/lib/armv6-m/libg.a(lib_a-sbrkr.o)
 .bss           0x2000092c        0x0 /usr/local/gcc-arm-none-eabi-4_8-2014q2/bin/../lib/gcc/arm-none-eabi/4.8.4/../../../../arm-none-eabi/lib/armv6-m/libg.a(lib_a-strcmp.o)
 .bss           0x2000092c        0x0 /usr/local/gcc-arm-none-eabi-4_8-2014q2/bin/../lib/gcc/arm-none-eabi/4.8.4/../../../../arm-none-eabi/lib/armv6-m/libg.a(lib_a-strlen.o)
 .bss           0x2000092c        0x0 /usr/local/gcc-arm-none-eabi-4_8-2014q2/bin/../lib/gcc/arm-none-eabi/4.8.4/../../../../arm-none-eabi/lib/armv6-m/libg.a(lib_a-svfiprintf.o)
 .bss           0x2000092c        0x0 /usr/local/gcc-arm-none-eabi-4_8-2014q2/bin/../lib/gcc/arm-none-eabi/4.8.4/../../../../arm-none-eabi/lib/armv6-m/libg.a(lib_a-__atexit.o)
 .bss           0x2000092c        0x0 /usr/local/gcc-arm-none-eabi-4_8-2014q2/bin/../lib/gcc/arm-none-eabi/4.8.4/../../../../arm-none-eabi/lib/armv6-m/libg.a(lib_a-callocr.o)
 .bss           0x2000092c        0x0 /usr/local/gcc-arm-none-eabi-4_8-2014q2/bin/../lib/gcc/arm-none-eabi/4.8.4/../../../../arm-none-eabi/lib/armv6-m/libg.a(lib_a-freer.o)
 .bss           0x2000092c        0x0 /usr/local/gcc-arm-none-eabi-4_8-2014q2/bin/../lib/gcc/arm-none-eabi/4.8.4/../../../../arm-none-eabi/lib/armv6-m/libg.a(lib_a-memmove.o)
 .bss           0x2000092c        0x0 /usr/local/gcc-arm-none-eabi-4_8-2014q2/bin/../lib/gcc/arm-none-eabi/4.8.4/../../../../arm-none-eabi/lib/armv6-m/libg.a(lib_a-reallocr.o)
 .bss           0x2000092c        0x0 /usr/local/gcc-arm-none-eabi-4_8-2014q2/bin/../lib/gcc/arm-none-eabi/4.8.4/../../../../arm-none-eabi/lib/armv6-m/libg.a(lib_a-reent.o)
 .bss           0x2000092c        0x0 /usr/local/gcc-arm-none-eabi-4_8-2014q2/bin/../lib/gcc/arm-none-eabi/4.8.4/armv6-m/libgcc.a(_divsi3.o)
 .bss           0x2000092c        0x0 /usr/local/gcc-arm-none-eabi-4_8-2014q2/bin/../lib/gcc/arm-none-eabi/4.8.4/armv6-m/libgcc.a(_arm_cmpdf2.o)
 .bss           0x2000092c        0x0 /usr/local/gcc-arm-none-eabi-4_8-2014q2/bin/../lib/gcc/arm-none-eabi/4.8.4/armv6-m/libgcc.a(_aeabi_uldivmod.o)
 .bss           0x2000092c        0x0 /usr/local/gcc-arm-none-eabi-4_8-2014q2/bin/../lib/gcc/arm-none-eabi/4.8.4/armv6-m/libgcc.a(bpabi.o)
 .bss           0x2000092c        0x0 /usr/local/gcc-arm-none-eabi-4_8-2014q2/bin/../lib/gcc/arm-none-eabi/4.8.4/armv6-m/libgcc.a(adddf3.o)
 .bss           0x2000092c        0x0 /usr/local/gcc-arm-none-eabi-4_8-2014q2/bin/../lib/gcc/arm-none-eabi/4.8.4/armv6-m/libgcc.a(divdf3.o)
 .bss           0x2000092c        0x0 /usr/local/gcc-arm-none-eabi-4_8-2014q2/bin/../lib/gcc/arm-none-eabi/4.8.4/armv6-m/libgcc.a(eqdf2.o)
 .bss           0x2000092c        0x0 /usr/local/gcc-arm-none-eabi-4_8-2014q2/bin/../lib/gcc/arm-none-eabi/4.8.4/armv6-m/libgcc.a(gedf2.o)
 .bss           0x2000092c        0x0 /usr/local/gcc-arm-none-eabi-4_8-2014q2/bin/../lib/gcc/arm-none-eabi/4.8.4/armv6-m/libgcc.a(ledf2.o)
 .bss           0x2000092c        0x0 /usr/local/gcc-arm-none-eabi-4_8-2014q2/bin/../lib/gcc/arm-none-eabi/4.8.4/armv6-m/libgcc.a(muldf3.o)
 .bss           0x2000092c        0x0 /usr/local/gcc-arm-none-eabi-4_8-2014q2/bin/../lib/gcc/arm-none-eabi/4.8.4/armv6-m/libgcc.a(subdf3.o)
 .bss           0x2000092c        0x0 /usr/local/gcc-arm-none-eabi-4_8-2014q2/bin/../lib/gcc/arm-none-eabi/4.8.4/armv6-m/libgcc.a(fixdfsi.o)
 .bss           0x2000092c        0x0 /usr/local/gcc-arm-none-eabi-4_8-2014q2/bin/../lib/gcc/arm-none-eabi/4.8.4/armv6-m/libgcc.a(floatsidf.o)
 .bss           0x2000092c        0x0 /usr/local/gcc-arm-none-eabi-4_8-2014q2/bin/../lib/gcc/arm-none-eabi/4.8.4/armv6-m/libgcc.a(floatunsidf.o)
 .bss           0x2000092c        0x0 /usr/local/gcc-arm-none-eabi-4_8-2014q2/bin/../lib/gcc/arm-none-eabi/4.8.4/armv6-m/libgcc.a(_clzsi2.o)
 .bss           0x2000092c        0x0 /usr/local/gcc-arm-none-eabi-4_8-2014q2/bin/../lib/gcc/arm-none-eabi/4.8.4/armv6-m/libgcc.a(_muldi3.o)
 .bss           0x2000092c        0x0 /usr/local/gcc-arm-none-eabi-4_8-2014q2/bin/../lib/gcc/arm-none-eabi/4.8.4/armv6-m/libgcc.a(_divdi3.o)
 .bss           0x2000092c        0x0 /usr/local/gcc-arm-none-eabi-4_8-2014q2/bin/../lib/gcc/arm-none-eabi/4.8.4/armv6-m/libgcc.a(_udivdi3.o)
 .bss           0x2000092c        0x0 /usr/local/gcc-arm-none-eabi-4_8-2014q2/bin/../lib/gcc/arm-none-eabi/4.8.4/armv6-m/crtend.o
 .bss           0x2000092c        0x0 /usr/local/gcc-arm-none-eabi-4_8-2014q2/bin/../lib/gcc/arm-none-eabi/4.8.4/armv6-m/crtn.o
 .bss           0x2000092c        0x0 /usr/local/gcc-arm-none-eabi-4_8-2014q2/bin/../lib/gcc/arm-none-eabi/4.8.4/../../../../arm-none-eabi/lib/armv6-m/libnosys.a(sbrk.o)
 .bss.heap_end.4246
                0x2000092c        0x4 /usr/local/gcc-arm-none-eabi-4_8-2014q2/bin/../lib/gcc/arm-none-eabi/4.8.4/../../../../arm-none-eabi/lib/armv6-m/libnosys.a(sbrk.o)
 .bss           0x20000930        0x0 /usr/local/gcc-arm-none-eabi-4_8-2014q2/bin/../lib/gcc/arm-none-eabi/4.8.4/../../../../arm-none-eabi/lib/armv6-m/libnosys.a(_exit.o)
 *(COMMON)
 COMMON         0x20000930        0x2 ./src/adc.o
                0x20000930                batt_lvl_in_milli_volts
 *fill*         0x20000932        0x2 
 COMMON         0x20000934        0x4 /usr/local/gcc-arm-none-eabi-4_8-2014q2/bin/../lib/gcc/arm-none-eabi/4.8.4/../../../../arm-none-eabi/lib/armv6-m/libg.a(lib_a-reent.o)
                0x20000934                errno
                0x20000938                . = ALIGN (0x4)
                0x20000938                __bss_end__ = .

.heap           0x20000938      0x800
                0x20000938                __end__ = .
                0x20000938                end = __end__
 *(.heap*)
 .heap          0x20000938      0x800 ./src/gcc_startup_nrf51.o
                0x20000938                __HeapBase
                0x20001138                __HeapLimit = .

.stack_dummy    0x20000938      0x800
 *(.stack*)
 .stack         0x20000938      0x800 ./src/gcc_startup_nrf51.o
                0x20004000                __StackTop = (ORIGIN (RAM) + 0x4000)
                0x20003800                __StackLimit = (__StackTop - SIZEOF (.stack_dummy))
                0x20004000                PROVIDE (__stack, __StackTop)
                0x00000001                ASSERT ((__StackLimit >= __HeapLimit), region RAM overflowed with stack)
OUTPUT(adc_example.elf elf32-littlearm)

.ARM.attributes
                0x00000000       0x28
 .ARM.attributes
                0x00000000       0x1e /usr/local/gcc-arm-none-eabi-4_8-2014q2/bin/../lib/gcc/arm-none-eabi/4.8.4/armv6-m/crti.o
 .ARM.attributes
                0x0000001e       0x2c /usr/local/gcc-arm-none-eabi-4_8-2014q2/bin/../lib/gcc/arm-none-eabi/4.8.4/armv6-m/crtbegin.o
 .ARM.attributes
                0x0000004a       0x1b /usr/local/gcc-arm-none-eabi-4_8-2014q2/bin/../lib/gcc/arm-none-eabi/4.8.4/../../../../arm-none-eabi/lib/armv6-m/crt0.o
 .ARM.attributes
                0x00000065       0x31 ./src/adc.o
 .ARM.attributes
                0x00000096       0x1b ./src/gcc_startup_nrf51.o
 .ARM.attributes
                0x000000b1       0x31 ./src/gpio.o
 .ARM.attributes
                0x000000e2       0x31 ./src/main.o
 .ARM.attributes
                0x00000113       0x31 ./src/system_nrf51.o
 .ARM.attributes
                0x00000144       0x31 ./src/timer.o
 .ARM.attributes
                0x00000175       0x31 ./src/uart.o
 .ARM.attributes
                0x000001a6       0x31 ./simple_uart/simple_uart.o
 .ARM.attributes
                0x000001d7       0x1e /usr/local/gcc-arm-none-eabi-4_8-2014q2/bin/../lib/gcc/arm-none-eabi/4.8.4/armv6-m/libgcc.a(_udivsi3.o)
 .ARM.attributes
                0x000001f5       0x1e /usr/local/gcc-arm-none-eabi-4_8-2014q2/bin/../lib/gcc/arm-none-eabi/4.8.4/armv6-m/libgcc.a(_dvmd_tls.o)
 .ARM.attributes
                0x00000213       0x2c /usr/local/gcc-arm-none-eabi-4_8-2014q2/bin/../lib/gcc/arm-none-eabi/4.8.4/../../../../arm-none-eabi/lib/armv6-m/libg.a(lib_a-exit.o)
 .ARM.attributes
                0x0000023f       0x2c /usr/local/gcc-arm-none-eabi-4_8-2014q2/bin/../lib/gcc/arm-none-eabi/4.8.4/../../../../arm-none-eabi/lib/armv6-m/libg.a(lib_a-impure.o)
 .ARM.attributes
                0x0000026b       0x2c /usr/local/gcc-arm-none-eabi-4_8-2014q2/bin/../lib/gcc/arm-none-eabi/4.8.4/../../../../arm-none-eabi/lib/armv6-m/libg.a(lib_a-init.o)
 .ARM.attributes
                0x00000297       0x2c /usr/local/gcc-arm-none-eabi-4_8-2014q2/bin/../lib/gcc/arm-none-eabi/4.8.4/../../../../arm-none-eabi/lib/armv6-m/libg.a(lib_a-memset.o)
 .ARM.attributes
                0x000002c3       0x2c /usr/local/gcc-arm-none-eabi-4_8-2014q2/bin/../lib/gcc/arm-none-eabi/4.8.4/../../../../arm-none-eabi/lib/armv6-m/libg.a(lib_a-sprintf.o)
 .ARM.attributes
                0x000002ef       0x2c /usr/local/gcc-arm-none-eabi-4_8-2014q2/bin/../lib/gcc/arm-none-eabi/4.8.4/../../../../arm-none-eabi/lib/armv6-m/libg.a(lib_a-svfprintf.o)
 .ARM.attributes
                0x0000031b       0x2c /usr/local/gcc-arm-none-eabi-4_8-2014q2/bin/../lib/gcc/arm-none-eabi/4.8.4/../../../../arm-none-eabi/lib/armv6-m/libg.a(lib_a-__call_atexit.o)
 .ARM.attributes
                0x00000347       0x2c /usr/local/gcc-arm-none-eabi-4_8-2014q2/bin/../lib/gcc/arm-none-eabi/4.8.4/../../../../arm-none-eabi/lib/armv6-m/libg.a(lib_a-atexit.o)
 .ARM.attributes
                0x00000373       0x2c /usr/local/gcc-arm-none-eabi-4_8-2014q2/bin/../lib/gcc/arm-none-eabi/4.8.4/../../../../arm-none-eabi/lib/armv6-m/libg.a(lib_a-dtoa.o)
 .ARM.attributes
                0x0000039f       0x2c /usr/local/gcc-arm-none-eabi-4_8-2014q2/bin/../lib/gcc/arm-none-eabi/4.8.4/../../../../arm-none-eabi/lib/armv6-m/libg.a(lib_a-fini.o)
 .ARM.attributes
                0x000003cb       0x2c /usr/local/gcc-arm-none-eabi-4_8-2014q2/bin/../lib/gcc/arm-none-eabi/4.8.4/../../../../arm-none-eabi/lib/armv6-m/libg.a(lib_a-locale.o)
 .ARM.attributes
                0x000003f7       0x2c /usr/local/gcc-arm-none-eabi-4_8-2014q2/bin/../lib/gcc/arm-none-eabi/4.8.4/../../../../arm-none-eabi/lib/armv6-m/libg.a(lib_a-mallocr.o)
 .ARM.attributes
                0x00000423       0x2c /usr/local/gcc-arm-none-eabi-4_8-2014q2/bin/../lib/gcc/arm-none-eabi/4.8.4/../../../../arm-none-eabi/lib/armv6-m/libg.a(lib_a-memchr-stub.o)
 .ARM.attributes
                0x0000044f       0x2c /usr/local/gcc-arm-none-eabi-4_8-2014q2/bin/../lib/gcc/arm-none-eabi/4.8.4/../../../../arm-none-eabi/lib/armv6-m/libg.a(lib_a-memcpy-stub.o)
 .ARM.attributes
                0x0000047b       0x2c /usr/local/gcc-arm-none-eabi-4_8-2014q2/bin/../lib/gcc/arm-none-eabi/4.8.4/../../../../arm-none-eabi/lib/armv6-m/libg.a(lib_a-mlock.o)
 .ARM.attributes
                0x000004a7       0x2c /usr/local/gcc-arm-none-eabi-4_8-2014q2/bin/../lib/gcc/arm-none-eabi/4.8.4/../../../../arm-none-eabi/lib/armv6-m/libg.a(lib_a-mprec.o)
 .ARM.attributes
                0x000004d3       0x2c /usr/local/gcc-arm-none-eabi-4_8-2014q2/bin/../lib/gcc/arm-none-eabi/4.8.4/../../../../arm-none-eabi/lib/armv6-m/libg.a(lib_a-s_fpclassify.o)
 .ARM.attributes
                0x000004ff       0x2c /usr/local/gcc-arm-none-eabi-4_8-2014q2/bin/../lib/gcc/arm-none-eabi/4.8.4/../../../../arm-none-eabi/lib/armv6-m/libg.a(lib_a-sbrkr.o)
 .ARM.attributes
                0x0000052b       0x1c /usr/local/gcc-arm-none-eabi-4_8-2014q2/bin/../lib/gcc/arm-none-eabi/4.8.4/../../../../arm-none-eabi/lib/armv6-m/libg.a(lib_a-strcmp.o)
 .ARM.attributes
                0x00000547       0x2c /usr/local/gcc-arm-none-eabi-4_8-2014q2/bin/../lib/gcc/arm-none-eabi/4.8.4/../../../../arm-none-eabi/lib/armv6-m/libg.a(lib_a-strlen.o)
 .ARM.attributes
                0x00000573       0x2c /usr/local/gcc-arm-none-eabi-4_8-2014q2/bin/../lib/gcc/arm-none-eabi/4.8.4/../../../../arm-none-eabi/lib/armv6-m/libg.a(lib_a-svfiprintf.o)
 .ARM.attributes
                0x0000059f       0x2c /usr/local/gcc-arm-none-eabi-4_8-2014q2/bin/../lib/gcc/arm-none-eabi/4.8.4/../../../../arm-none-eabi/lib/armv6-m/libg.a(lib_a-__atexit.o)
 .ARM.attributes
                0x000005cb       0x2c /usr/local/gcc-arm-none-eabi-4_8-2014q2/bin/../lib/gcc/arm-none-eabi/4.8.4/../../../../arm-none-eabi/lib/armv6-m/libg.a(lib_a-callocr.o)
 .ARM.attributes
                0x000005f7       0x2c /usr/local/gcc-arm-none-eabi-4_8-2014q2/bin/../lib/gcc/arm-none-eabi/4.8.4/../../../../arm-none-eabi/lib/armv6-m/libg.a(lib_a-freer.o)
 .ARM.attributes
                0x00000623       0x2c /usr/local/gcc-arm-none-eabi-4_8-2014q2/bin/../lib/gcc/arm-none-eabi/4.8.4/../../../../arm-none-eabi/lib/armv6-m/libg.a(lib_a-memmove.o)
 .ARM.attributes
                0x0000064f       0x2c /usr/local/gcc-arm-none-eabi-4_8-2014q2/bin/../lib/gcc/arm-none-eabi/4.8.4/../../../../arm-none-eabi/lib/armv6-m/libg.a(lib_a-reallocr.o)
 .ARM.attributes
                0x0000067b       0x2c /usr/local/gcc-arm-none-eabi-4_8-2014q2/bin/../lib/gcc/arm-none-eabi/4.8.4/../../../../arm-none-eabi/lib/armv6-m/libg.a(lib_a-reent.o)
 .ARM.attributes
                0x000006a7       0x1e /usr/local/gcc-arm-none-eabi-4_8-2014q2/bin/../lib/gcc/arm-none-eabi/4.8.4/armv6-m/libgcc.a(_divsi3.o)
 .ARM.attributes
                0x000006c5       0x1e /usr/local/gcc-arm-none-eabi-4_8-2014q2/bin/../lib/gcc/arm-none-eabi/4.8.4/armv6-m/libgcc.a(_arm_cmpdf2.o)
 .ARM.attributes
                0x000006e3       0x1e /usr/local/gcc-arm-none-eabi-4_8-2014q2/bin/../lib/gcc/arm-none-eabi/4.8.4/armv6-m/libgcc.a(_aeabi_uldivmod.o)
 .ARM.attributes
                0x00000701       0x2c /usr/local/gcc-arm-none-eabi-4_8-2014q2/bin/../lib/gcc/arm-none-eabi/4.8.4/armv6-m/libgcc.a(bpabi.o)
 .ARM.attributes
                0x0000072d       0x2c /usr/local/gcc-arm-none-eabi-4_8-2014q2/bin/../lib/gcc/arm-none-eabi/4.8.4/armv6-m/libgcc.a(adddf3.o)
 .ARM.attributes
                0x00000759       0x2c /usr/local/gcc-arm-none-eabi-4_8-2014q2/bin/../lib/gcc/arm-none-eabi/4.8.4/armv6-m/libgcc.a(divdf3.o)
 .ARM.attributes
                0x00000785       0x2c /usr/local/gcc-arm-none-eabi-4_8-2014q2/bin/../lib/gcc/arm-none-eabi/4.8.4/armv6-m/libgcc.a(eqdf2.o)
 .ARM.attributes
                0x000007b1       0x2c /usr/local/gcc-arm-none-eabi-4_8-2014q2/bin/../lib/gcc/arm-none-eabi/4.8.4/armv6-m/libgcc.a(gedf2.o)
 .ARM.attributes
                0x000007dd       0x2c /usr/local/gcc-arm-none-eabi-4_8-2014q2/bin/../lib/gcc/arm-none-eabi/4.8.4/armv6-m/libgcc.a(ledf2.o)
 .ARM.attributes
                0x00000809       0x2c /usr/local/gcc-arm-none-eabi-4_8-2014q2/bin/../lib/gcc/arm-none-eabi/4.8.4/armv6-m/libgcc.a(muldf3.o)
 .ARM.attributes
                0x00000835       0x2c /usr/local/gcc-arm-none-eabi-4_8-2014q2/bin/../lib/gcc/arm-none-eabi/4.8.4/armv6-m/libgcc.a(subdf3.o)
 .ARM.attributes
                0x00000861       0x2c /usr/local/gcc-arm-none-eabi-4_8-2014q2/bin/../lib/gcc/arm-none-eabi/4.8.4/armv6-m/libgcc.a(fixdfsi.o)
 .ARM.attributes
                0x0000088d       0x2c /usr/local/gcc-arm-none-eabi-4_8-2014q2/bin/../lib/gcc/arm-none-eabi/4.8.4/armv6-m/libgcc.a(floatsidf.o)
 .ARM.attributes
                0x000008b9       0x2c /usr/local/gcc-arm-none-eabi-4_8-2014q2/bin/../lib/gcc/arm-none-eabi/4.8.4/armv6-m/libgcc.a(floatunsidf.o)
 .ARM.attributes
                0x000008e5       0x1e /usr/local/gcc-arm-none-eabi-4_8-2014q2/bin/../lib/gcc/arm-none-eabi/4.8.4/armv6-m/libgcc.a(_clzsi2.o)
 .ARM.attributes
                0x00000903       0x2c /usr/local/gcc-arm-none-eabi-4_8-2014q2/bin/../lib/gcc/arm-none-eabi/4.8.4/armv6-m/libgcc.a(_muldi3.o)
 .ARM.attributes
                0x0000092f       0x2c /usr/local/gcc-arm-none-eabi-4_8-2014q2/bin/../lib/gcc/arm-none-eabi/4.8.4/armv6-m/libgcc.a(_divdi3.o)
 .ARM.attributes
                0x0000095b       0x2c /usr/local/gcc-arm-none-eabi-4_8-2014q2/bin/../lib/gcc/arm-none-eabi/4.8.4/armv6-m/libgcc.a(_udivdi3.o)
 .ARM.attributes
                0x00000987       0x2c /usr/local/gcc-arm-none-eabi-4_8-2014q2/bin/../lib/gcc/arm-none-eabi/4.8.4/armv6-m/crtend.o
 .ARM.attributes
                0x000009b3       0x1e /usr/local/gcc-arm-none-eabi-4_8-2014q2/bin/../lib/gcc/arm-none-eabi/4.8.4/armv6-m/crtn.o
 .ARM.attributes
                0x000009d1       0x2c /usr/local/gcc-arm-none-eabi-4_8-2014q2/bin/../lib/gcc/arm-none-eabi/4.8.4/../../../../arm-none-eabi/lib/armv6-m/libnosys.a(sbrk.o)
 .ARM.attributes
                0x000009fd       0x2c /usr/local/gcc-arm-none-eabi-4_8-2014q2/bin/../lib/gcc/arm-none-eabi/4.8.4/../../../../arm-none-eabi/lib/armv6-m/libnosys.a(_exit.o)

.comment        0x00000000       0x70
 .comment       0x00000000       0x70 ./src/adc.o
                                 0x71 (size before relaxing)
 .comment       0x00000000       0x71 ./src/gpio.o
 .comment       0x00000000       0x71 ./src/main.o
 .comment       0x00000000       0x71 ./src/system_nrf51.o
 .comment       0x00000000       0x71 ./src/timer.o
 .comment       0x00000000       0x71 ./src/uart.o
 .comment       0x00000000       0x71 ./simple_uart/simple_uart.o

.debug_info     0x00000000     0x1917
 .debug_info    0x00000000      0x791 ./src/adc.o
 .debug_info    0x00000791       0x71 ./src/gcc_startup_nrf51.o
 .debug_info    0x00000802      0x234 ./src/gpio.o
 .debug_info    0x00000a36       0xac ./src/main.o
 .debug_info    0x00000ae2      0x1b1 ./src/system_nrf51.o
 .debug_info    0x00000c93      0x4de ./src/timer.o
 .debug_info    0x00001171       0xff ./src/uart.o
 .debug_info    0x00001270      0x6a7 ./simple_uart/simple_uart.o

.debug_abbrev   0x00000000      0x6a0
 .debug_abbrev  0x00000000      0x12c ./src/adc.o
 .debug_abbrev  0x0000012c       0x14 ./src/gcc_startup_nrf51.o
 .debug_abbrev  0x00000140       0xe9 ./src/gpio.o
 .debug_abbrev  0x00000229       0x65 ./src/main.o
 .debug_abbrev  0x0000028e       0xf4 ./src/system_nrf51.o
 .debug_abbrev  0x00000382       0xed ./src/timer.o
 .debug_abbrev  0x0000046f       0xa3 ./src/uart.o
 .debug_abbrev  0x00000512      0x18e ./simple_uart/simple_uart.o

.debug_aranges  0x00000000      0x100
 .debug_aranges
                0x00000000       0x20 ./src/adc.o
 .debug_aranges
                0x00000020       0x20 ./src/gcc_startup_nrf51.o
 .debug_aranges
                0x00000040       0x20 ./src/gpio.o
 .debug_aranges
                0x00000060       0x20 ./src/main.o
 .debug_aranges
                0x00000080       0x20 ./src/system_nrf51.o
 .debug_aranges
                0x000000a0       0x20 ./src/timer.o
 .debug_aranges
                0x000000c0       0x20 ./src/uart.o
 .debug_aranges
                0x000000e0       0x20 ./simple_uart/simple_uart.o

.debug_macro    0x00000000     0x9cfe
 .debug_macro   0x00000000       0xe0 ./src/adc.o
 .debug_macro   0x000000e0      0x826 ./src/adc.o
 .debug_macro   0x00000906       0x22 ./src/adc.o
 .debug_macro   0x00000928       0x3a ./src/adc.o
 .debug_macro   0x00000962       0x16 ./src/adc.o
 .debug_macro   0x00000978       0x44 ./src/adc.o
 .debug_macro   0x000009bc      0x209 ./src/adc.o
 .debug_macro   0x00000bc5       0x1f ./src/adc.o
 .debug_macro   0x00000be4      0x242 ./src/adc.o
 .debug_macro   0x00000e26      0x1d2 ./src/adc.o
 .debug_macro   0x00000ff8     0x746b ./src/adc.o
 .debug_macro   0x00008463       0x3a ./src/adc.o
 .debug_macro   0x0000849d       0xdc ./src/gpio.o
 .debug_macro   0x00008579      0x976 ./src/gpio.o
 .debug_macro   0x00008eef       0x10 ./src/gpio.o
 .debug_macro   0x00008eff       0x73 ./src/main.o
 .debug_macro   0x00008f72       0x22 ./src/main.o
 .debug_macro   0x00008f94       0xbe ./src/system_nrf51.o
 .debug_macro   0x00009052       0xd7 ./src/timer.o
 .debug_macro   0x00009129      0x12e ./src/uart.o
 .debug_macro   0x00009257       0x58 ./src/uart.o
 .debug_macro   0x000092af       0x35 ./src/uart.o
 .debug_macro   0x000092e4       0xa3 ./src/uart.o
 .debug_macro   0x00009387       0x16 ./src/uart.o
 .debug_macro   0x0000939d       0x97 ./src/uart.o
 .debug_macro   0x00009434       0x10 ./src/uart.o
 .debug_macro   0x00009444       0xef ./src/uart.o
 .debug_macro   0x00009533       0x4a ./src/uart.o
 .debug_macro   0x0000957d       0x52 ./src/uart.o
 .debug_macro   0x000095cf       0x16 ./src/uart.o
 .debug_macro   0x000095e5       0x43 ./src/uart.o
 .debug_macro   0x00009628      0x180 ./src/uart.o
 .debug_macro   0x000097a8       0x10 ./src/uart.o
 .debug_macro   0x000097b8       0x22 ./src/uart.o
 .debug_macro   0x000097da       0xbd ./src/uart.o
 .debug_macro   0x00009897       0x16 ./src/uart.o
 .debug_macro   0x000098ad      0x16c ./src/uart.o
 .debug_macro   0x00009a19      0x20f ./src/uart.o
 .debug_macro   0x00009c28       0xd6 ./simple_uart/simple_uart.o

.debug_line     0x00000000     0x1339
 .debug_line    0x00000000      0x2b6 ./src/adc.o
 .debug_line    0x000002b6       0x74 ./src/gcc_startup_nrf51.o
 .debug_line    0x0000032a      0x2fe ./src/gpio.o
 .debug_line    0x00000628      0x1c5 ./src/main.o
 .debug_line    0x000007ed      0x2c3 ./src/system_nrf51.o
 .debug_line    0x00000ab0      0x296 ./src/timer.o
 .debug_line    0x00000d46      0x2b8 ./src/uart.o
 .debug_line    0x00000ffe      0x33b ./simple_uart/simple_uart.o

.debug_str      0x00000000    0x3132c
 .debug_str     0x00000000    0x2ba23 ./src/adc.o
                              0x2bb88 (size before relaxing)
 .debug_str     0x0002ba23     0x32d4 ./src/gpio.o
                              0x2ea2c (size before relaxing)
 .debug_str     0x0002ecf7       0x63 ./src/main.o
                               0x2e73 (size before relaxing)
 .debug_str     0x0002ed5a       0xee ./src/system_nrf51.o
                              0x2e9fc (size before relaxing)
 .debug_str     0x0002ee48      0x1a6 ./src/timer.o
                              0x2eb5e (size before relaxing)
 .debug_str     0x0002efee     0x20b7 ./src/uart.o
                               0x4ffd (size before relaxing)
 .debug_str     0x000310a5      0x287 ./simple_uart/simple_uart.o
                              0x2ec79 (size before relaxing)

.debug_frame    0x00000000      0xf34
 .debug_frame   0x00000000       0x68 ./src/adc.o
 .debug_frame   0x00000068       0xc8 ./src/gpio.o
 .debug_frame   0x00000130       0x2c ./src/main.o
 .debug_frame   0x0000015c       0x80 ./src/system_nrf51.o
 .debug_frame   0x000001dc       0x2c ./src/timer.o
 .debug_frame   0x00000208       0x50 ./src/uart.o
 .debug_frame   0x00000258      0x10c ./simple_uart/simple_uart.o
 .debug_frame   0x00000364       0x20 /usr/local/gcc-arm-none-eabi-4_8-2014q2/bin/../lib/gcc/arm-none-eabi/4.8.4/armv6-m/libgcc.a(_udivsi3.o)
 .debug_frame   0x00000384       0x28 /usr/local/gcc-arm-none-eabi-4_8-2014q2/bin/../lib/gcc/arm-none-eabi/4.8.4/../../../../arm-none-eabi/lib/armv6-m/libg.a(lib_a-exit.o)
 .debug_frame   0x000003ac       0x2c /usr/local/gcc-arm-none-eabi-4_8-2014q2/bin/../lib/gcc/arm-none-eabi/4.8.4/../../../../arm-none-eabi/lib/armv6-m/libg.a(lib_a-init.o)
 .debug_frame   0x000003d8       0x30 /usr/local/gcc-arm-none-eabi-4_8-2014q2/bin/../lib/gcc/arm-none-eabi/4.8.4/../../../../arm-none-eabi/lib/armv6-m/libg.a(lib_a-memset.o)
 .debug_frame   0x00000408       0x4c /usr/local/gcc-arm-none-eabi-4_8-2014q2/bin/../lib/gcc/arm-none-eabi/4.8.4/../../../../arm-none-eabi/lib/armv6-m/libg.a(lib_a-sprintf.o)
 .debug_frame   0x00000454       0x3c /usr/local/gcc-arm-none-eabi-4_8-2014q2/bin/../lib/gcc/arm-none-eabi/4.8.4/../../../../arm-none-eabi/lib/armv6-m/libg.a(lib_a-svfprintf.o)
 .debug_frame   0x00000490       0x54 /usr/local/gcc-arm-none-eabi-4_8-2014q2/bin/../lib/gcc/arm-none-eabi/4.8.4/../../../../arm-none-eabi/lib/armv6-m/libg.a(lib_a-__call_atexit.o)
 .debug_frame   0x000004e4       0x28 /usr/local/gcc-arm-none-eabi-4_8-2014q2/bin/../lib/gcc/arm-none-eabi/4.8.4/../../../../arm-none-eabi/lib/armv6-m/libg.a(lib_a-atexit.o)
 .debug_frame   0x0000050c       0x68 /usr/local/gcc-arm-none-eabi-4_8-2014q2/bin/../lib/gcc/arm-none-eabi/4.8.4/../../../../arm-none-eabi/lib/armv6-m/libg.a(lib_a-dtoa.o)
 .debug_frame   0x00000574       0x2c /usr/local/gcc-arm-none-eabi-4_8-2014q2/bin/../lib/gcc/arm-none-eabi/4.8.4/../../../../arm-none-eabi/lib/armv6-m/libg.a(lib_a-fini.o)
 .debug_frame   0x000005a0       0xa4 /usr/local/gcc-arm-none-eabi-4_8-2014q2/bin/../lib/gcc/arm-none-eabi/4.8.4/../../../../arm-none-eabi/lib/armv6-m/libg.a(lib_a-locale.o)
 .debug_frame   0x00000644       0x3c /usr/local/gcc-arm-none-eabi-4_8-2014q2/bin/../lib/gcc/arm-none-eabi/4.8.4/../../../../arm-none-eabi/lib/armv6-m/libg.a(lib_a-mallocr.o)
 .debug_frame   0x00000680       0x30 /usr/local/gcc-arm-none-eabi-4_8-2014q2/bin/../lib/gcc/arm-none-eabi/4.8.4/../../../../arm-none-eabi/lib/armv6-m/libg.a(lib_a-memchr-stub.o)
 .debug_frame   0x000006b0       0x30 /usr/local/gcc-arm-none-eabi-4_8-2014q2/bin/../lib/gcc/arm-none-eabi/4.8.4/../../../../arm-none-eabi/lib/armv6-m/libg.a(lib_a-memcpy-stub.o)
 .debug_frame   0x000006e0       0x30 /usr/local/gcc-arm-none-eabi-4_8-2014q2/bin/../lib/gcc/arm-none-eabi/4.8.4/../../../../arm-none-eabi/lib/armv6-m/libg.a(lib_a-mlock.o)
 .debug_frame   0x00000710      0x260 /usr/local/gcc-arm-none-eabi-4_8-2014q2/bin/../lib/gcc/arm-none-eabi/4.8.4/../../../../arm-none-eabi/lib/armv6-m/libg.a(lib_a-mprec.o)
 .debug_frame   0x00000970       0x2c /usr/local/gcc-arm-none-eabi-4_8-2014q2/bin/../lib/gcc/arm-none-eabi/4.8.4/../../../../arm-none-eabi/lib/armv6-m/libg.a(lib_a-s_fpclassify.o)
 .debug_frame   0x0000099c       0x2c /usr/local/gcc-arm-none-eabi-4_8-2014q2/bin/../lib/gcc/arm-none-eabi/4.8.4/../../../../arm-none-eabi/lib/armv6-m/libg.a(lib_a-sbrkr.o)
 .debug_frame   0x000009c8       0x20 /usr/local/gcc-arm-none-eabi-4_8-2014q2/bin/../lib/gcc/arm-none-eabi/4.8.4/../../../../arm-none-eabi/lib/armv6-m/libg.a(lib_a-strlen.o)
 .debug_frame   0x000009e8       0x68 /usr/local/gcc-arm-none-eabi-4_8-2014q2/bin/../lib/gcc/arm-none-eabi/4.8.4/../../../../arm-none-eabi/lib/armv6-m/libg.a(lib_a-svfiprintf.o)
 .debug_frame   0x00000a50       0x38 /usr/local/gcc-arm-none-eabi-4_8-2014q2/bin/../lib/gcc/arm-none-eabi/4.8.4/../../../../arm-none-eabi/lib/armv6-m/libg.a(lib_a-__atexit.o)
 .debug_frame   0x00000a88       0x28 /usr/local/gcc-arm-none-eabi-4_8-2014q2/bin/../lib/gcc/arm-none-eabi/4.8.4/../../../../arm-none-eabi/lib/armv6-m/libg.a(lib_a-callocr.o)
 .debug_frame   0x00000ab0       0x54 /usr/local/gcc-arm-none-eabi-4_8-2014q2/bin/../lib/gcc/arm-none-eabi/4.8.4/../../../../arm-none-eabi/lib/armv6-m/libg.a(lib_a-freer.o)
 .debug_frame   0x00000b04       0x30 /usr/local/gcc-arm-none-eabi-4_8-2014q2/bin/../lib/gcc/arm-none-eabi/4.8.4/../../../../arm-none-eabi/lib/armv6-m/libg.a(lib_a-memmove.o)
 .debug_frame   0x00000b34       0x3c /usr/local/gcc-arm-none-eabi-4_8-2014q2/bin/../lib/gcc/arm-none-eabi/4.8.4/../../../../arm-none-eabi/lib/armv6-m/libg.a(lib_a-reallocr.o)
 .debug_frame   0x00000b70       0x48 /usr/local/gcc-arm-none-eabi-4_8-2014q2/bin/../lib/gcc/arm-none-eabi/4.8.4/../../../../arm-none-eabi/lib/armv6-m/libg.a(lib_a-reent.o)
 .debug_frame   0x00000bb8       0x20 /usr/local/gcc-arm-none-eabi-4_8-2014q2/bin/../lib/gcc/arm-none-eabi/4.8.4/armv6-m/libgcc.a(_divsi3.o)
 .debug_frame   0x00000bd8       0x50 /usr/local/gcc-arm-none-eabi-4_8-2014q2/bin/../lib/gcc/arm-none-eabi/4.8.4/armv6-m/libgcc.a(bpabi.o)
 .debug_frame   0x00000c28       0x3c /usr/local/gcc-arm-none-eabi-4_8-2014q2/bin/../lib/gcc/arm-none-eabi/4.8.4/armv6-m/libgcc.a(adddf3.o)
 .debug_frame   0x00000c64       0x3c /usr/local/gcc-arm-none-eabi-4_8-2014q2/bin/../lib/gcc/arm-none-eabi/4.8.4/armv6-m/libgcc.a(divdf3.o)
 .debug_frame   0x00000ca0       0x3c /usr/local/gcc-arm-none-eabi-4_8-2014q2/bin/../lib/gcc/arm-none-eabi/4.8.4/armv6-m/libgcc.a(eqdf2.o)
 .debug_frame   0x00000cdc       0x38 /usr/local/gcc-arm-none-eabi-4_8-2014q2/bin/../lib/gcc/arm-none-eabi/4.8.4/armv6-m/libgcc.a(gedf2.o)
 .debug_frame   0x00000d14       0x3c /usr/local/gcc-arm-none-eabi-4_8-2014q2/bin/../lib/gcc/arm-none-eabi/4.8.4/armv6-m/libgcc.a(ledf2.o)
 .debug_frame   0x00000d50       0x3c /usr/local/gcc-arm-none-eabi-4_8-2014q2/bin/../lib/gcc/arm-none-eabi/4.8.4/armv6-m/libgcc.a(muldf3.o)
 .debug_frame   0x00000d8c       0x3c /usr/local/gcc-arm-none-eabi-4_8-2014q2/bin/../lib/gcc/arm-none-eabi/4.8.4/armv6-m/libgcc.a(subdf3.o)
 .debug_frame   0x00000dc8       0x2c /usr/local/gcc-arm-none-eabi-4_8-2014q2/bin/../lib/gcc/arm-none-eabi/4.8.4/armv6-m/libgcc.a(fixdfsi.o)
 .debug_frame   0x00000df4       0x30 /usr/local/gcc-arm-none-eabi-4_8-2014q2/bin/../lib/gcc/arm-none-eabi/4.8.4/armv6-m/libgcc.a(floatsidf.o)
 .debug_frame   0x00000e24       0x28 /usr/local/gcc-arm-none-eabi-4_8-2014q2/bin/../lib/gcc/arm-none-eabi/4.8.4/armv6-m/libgcc.a(floatunsidf.o)
 .debug_frame   0x00000e4c       0x30 /usr/local/gcc-arm-none-eabi-4_8-2014q2/bin/../lib/gcc/arm-none-eabi/4.8.4/armv6-m/libgcc.a(_muldi3.o)
 .debug_frame   0x00000e7c       0x3c /usr/local/gcc-arm-none-eabi-4_8-2014q2/bin/../lib/gcc/arm-none-eabi/4.8.4/armv6-m/libgcc.a(_divdi3.o)
 .debug_frame   0x00000eb8       0x3c /usr/local/gcc-arm-none-eabi-4_8-2014q2/bin/../lib/gcc/arm-none-eabi/4.8.4/armv6-m/libgcc.a(_udivdi3.o)
 .debug_frame   0x00000ef4       0x20 /usr/local/gcc-arm-none-eabi-4_8-2014q2/bin/../lib/gcc/arm-none-eabi/4.8.4/../../../../arm-none-eabi/lib/armv6-m/libnosys.a(sbrk.o)
 .debug_frame   0x00000f14       0x20 /usr/local/gcc-arm-none-eabi-4_8-2014q2/bin/../lib/gcc/arm-none-eabi/4.8.4/../../../../arm-none-eabi/lib/armv6-m/libnosys.a(_exit.o)
